

Microchip MPLAB XC8 Assembler V2.36 build 20220127204148 
                                                                                               Sun Apr 10 14:50:07 2022

Microchip MPLAB XC8 C Compiler v2.36 (Free license) build 20220127204148 Og1 
     1                           	processor	18F45K50
     2                           	fnconf	rparam,??,?,0
     3                           	pagewidth 120
     4                           	opt	flic
     5                           	psect	smallconst,global,reloc=2,class=SMALLCONST,delta=1,noexec
     6                           	psect	cinit,global,reloc=2,class=CODE,delta=1
     7                           	psect	bssBANK0,global,class=BANK0,space=1,delta=1,lowdata,noexec
     8                           	psect	cstackBANK1,global,class=BANK1,space=1,delta=1,lowdata,noexec
     9                           	psect	cstackBANK0,global,class=BANK0,space=1,delta=1,lowdata,noexec
    10                           	psect	cstackCOMRAM,global,class=COMRAM,space=1,delta=1,lowdata,noexec
    11                           	psect	text0,global,reloc=2,class=CODE,delta=1
    12                           	psect	text1,global,reloc=2,class=CODE,delta=1
    13                           	psect	text2,global,reloc=2,class=CODE,delta=1,group=2
    14                           	psect	text3,global,reloc=2,class=CODE,delta=1,group=1
    15                           	psect	text4,global,reloc=2,class=CODE,delta=1,group=2
    16                           	psect	text5,global,reloc=2,class=CODE,delta=1,group=2
    17                           	psect	text6,global,reloc=2,class=CODE,delta=1,group=2
    18                           	psect	text7,global,reloc=2,class=CODE,delta=1,group=1
    19                           	psect	text8,global,reloc=2,class=CODE,delta=1,group=2
    20                           	psect	text9,global,reloc=2,class=CODE,delta=1,group=1
    21                           	psect	text10,global,reloc=2,class=CODE,delta=1,group=2
    22                           	psect	text11,global,reloc=2,class=CODE,delta=1,group=1
    23                           	psect	text12,global,reloc=2,class=CODE,delta=1,group=1
    24                           	psect	text13,global,reloc=2,class=CODE,delta=1,group=1
    25                           	psect	text14,global,reloc=2,class=CODE,delta=1,group=1
    26                           	psect	text15,global,reloc=2,class=CODE,delta=1,group=1
    27                           	psect	text16,global,reloc=2,class=CODE,delta=1,group=1
    28                           	psect	text17,global,reloc=2,class=CODE,delta=1
    29                           	psect	text18,global,reloc=2,class=CODE,delta=1
    30                           	psect	text19,global,reloc=2,class=CODE,delta=1
    31                           	psect	intsave_regs,global,class=BIGRAM,space=1,delta=1,noexec
    32                           	psect	rparam,global,class=COMRAM,space=1,delta=1,noexec
    33                           	psect	idloc,global,abs,ovrld,class=IDLOC,space=5,delta=1,noexec
    34                           	psect	config,global,abs,ovrld,class=CONFIG,space=4,delta=1,noexec
    35  0000                     
    36                           ; Version 2.35
    37                           ; Generated 05/05/2021 GMT
    38                           ; 
    39                           ; Copyright © 2021, Microchip Technology Inc. and its subsidiaries ("Microchip")
    40                           ; All rights reserved.
    41                           ; 
    42                           ; This software is developed by Microchip Technology Inc. and its subsidiaries ("Microch
      +                          ip").
    43                           ; 
    44                           ; Redistribution and use in source and binary forms, with or without modification, are
    45                           ; permitted provided that the following conditions are met:
    46                           ; 
    47                           ;     1. Redistributions of source code must retain the above copyright notice, this lis
      +                          t of
    48                           ;        conditions and the following disclaimer.
    49                           ; 
    50                           ;     2. Redistributions in binary form must reproduce the above copyright notice, this 
      +                          list
    51                           ;        of conditions and the following disclaimer in the documentation and/or other
    52                           ;        materials provided with the distribution. Publication is not required when
    53                           ;        this file is used in an embedded application.
    54                           ; 
    55                           ;     3. Microchip's name may not be used to endorse or promote products derived from th
      +                          is
    56                           ;        software without specific prior written permission.
    57                           ; 
    58                           ; THIS SOFTWARE IS PROVIDED BY MICROCHIP "AS IS" AND ANY EXPRESS OR IMPLIED WARRANTIES,
    59                           ; INCLUDING, BUT NOT LIMITED TO, THE IMPLIED WARRANTIES OF MERCHANTABILITY AND FITNESS F
      +                          OR
    60                           ; PURPOSE ARE DISCLAIMED.  IN NO EVENT SHALL MICROCHIP BE LIABLE FOR ANY DIRECT, INDIREC
      +                          T,
    61                           ; INCIDENTAL, SPECIAL, EXEMPLARY, OR CONSEQUENTIAL DAMAGES (INCLUDING BUT NOT LIMITED TO
    62                           ; PROCUREMENT OF SUBSTITUTE GOODS OR SERVICES; LOSS OF USE, DATA OR PROFITS; OR BUSINESS
    63                           ; INTERRUPTION) HOWSOEVER CAUSED AND ON ANY THEORY OF LIABILITY, WHETHER IN CONTRACT, ST
      +                          RICT
    64                           ; LIABILITY, OR TORT (INCLUDING NEGLIGENCE OR OTHERWISE) ARISING IN ANY WAY OUT OF THE U
      +                          SE OF
    65                           ; THIS SOFTWARE, EVEN IF ADVISED OF THE POSSIBILITY OF SUCH DAMAGE.
    66                           ; 
    67                           ; 
    68                           ; Code-generator required, PIC18F45K50 Definitions
    69                           ; 
    70                           ; SFR Addresses
    71  0000                     
    72                           	psect	smallconst
    73  000800                     __psmallconst:
    74                           	callstack 0
    75  000800  00                 	db	0
    76  000801                     _dp_l:
    77                           	callstack 0
    78  000801  0000               	dw	0
    79  000803  0000               	dw	0
    80  000805  CFDC               	dw	53212
    81  000807  35D1               	dw	13777
    82  000809                     __end_of_dp_l:
    83                           	callstack 0
    84  000809                     _dp_h:
    85                           	callstack 0
    86  000809  0000               	dw	0
    87  00080B  0000               	dw	0
    88  00080D  C000               	dw	49152
    89  00080F  3F15               	dw	16149
    90  000811                     __end_of_dp_h:
    91                           	callstack 0
    92  000811  4260               	dw	16992
    93  000813  0DA2               	dw	3490
    94  000815                     __end_of_tiny@sqrtf$F645:
    95                           	callstack 0
    96  000815  A570               	dw	42352
    97  000817  36EC               	dw	14060
    98  000819                     __end_of_ivln2_l:
    99                           	callstack 0
   100  000819  AA3B               	dw	43579
   101  00081B  3FB8               	dw	16312
   102  00081D                     __end_of_ivln2:
   103                           	callstack 0
   104  00081D  384F               	dw	14415
   105  00081F  3F76               	dw	16246
   106  000821                     __end_of_cp:
   107                           	callstack 0
   108  000821  AA3C               	dw	43580
   109  000823  3338               	dw	13112
   110  000825                     __end_of_ovt:
   111                           	callstack 0
   112  000825  BE8C               	dw	48780
   113  000827  35BF               	dw	13759
   114  000829                     __end_of_lg2_l:
   115                           	callstack 0
   116  000829  7200               	dw	29184
   117  00082B  3F31               	dw	16177
   118  00082D                     __end_of_lg2_h:
   119                           	callstack 0
   120  00082D  7218               	dw	29208
   121  00082F  3F31               	dw	16177
   122  000831                     __end_of_lg2:
   123                           	callstack 0
   124  000831  BB4C               	dw	47948
   125  000833  3331               	dw	13105
   126  000835                     __end_of_P5:
   127                           	callstack 0
   128  000835  EA0E               	dw	59918
   129  000837  B5DD               	dw	46557
   130  000839                     __end_of_P4:
   131                           	callstack 0
   132  000839  B355               	dw	45909
   133  00083B  388A               	dw	14474
   134  00083D                     __end_of_P3:
   135                           	callstack 0
   136  00083D  0B61               	dw	2913
   137  00083F  BB36               	dw	47926
   138  000841                     __end_of_P2:
   139                           	callstack 0
   140  000841  AAAB               	dw	43691
   141  000843  3E2A               	dw	15914
   142  000845                     __end_of_P1:
   143                           	callstack 0
   144  000845  F142               	dw	61762
   145  000847  3E53               	dw	15955
   146  000849                     __end_of_L6:
   147                           	callstack 0
   148  000849  3255               	dw	12885
   149  00084B  3E6C               	dw	15980
   150  00084D                     __end_of_L5:
   151                           	callstack 0
   152  00084D  A305               	dw	41733
   153  00084F  3E8B               	dw	16011
   154  000851                     __end_of_L4:
   155                           	callstack 0
   156  000851  AAAB               	dw	43691
   157  000853  3EAA               	dw	16042
   158  000855                     __end_of_L3:
   159                           	callstack 0
   160  000855  6DB7               	dw	28087
   161  000857  3EDB               	dw	16091
   162  000859                     __end_of_L2:
   163                           	callstack 0
   164  000859  999A               	dw	39322
   165  00085B  3F19               	dw	16153
   166  00085D                     __end_of_L1:
   167                           	callstack 0
   168  00085D  4260               	dw	16992
   169  00085F  0DA2               	dw	3490
   170  000861                     __end_of_tiny:
   171                           	callstack 0
   172  000861  F2CA               	dw	62154
   173  000863  7149               	dw	29001
   174  000865                     __end_of_huge:
   175                           	callstack 0
   176  000865  0000               	dw	0
   177  000867  4B80               	dw	19328
   178  000869                     __end_of_two24:
   179                           	callstack 0
   180  000869                     _bp:
   181                           	callstack 0
   182  000869  0000               	dw	0
   183  00086B  3F80               	dw	16256
   184  00086D  0000               	dw	0
   185  00086F  3FC0               	dw	16320
   186  000871                     __end_of_bp:
   187                           	callstack 0
   188  000871  AA00               	dw	43520
   189  000873  3FB8               	dw	16312
   190  000875                     __end_of_ivln2_h:
   191                           	callstack 0
   192  000875  23C6               	dw	9158
   193  000877  B8F6               	dw	47350
   194  000879                     __end_of_cp_l:
   195                           	callstack 0
   196  000879  4000               	dw	16384
   197  00087B  3F76               	dw	16246
   198  00087D                     __end_of_cp_h:
   199                           	callstack 0
   200  0000                     _ANSELA	set	3931
   201  0000                     _PORTA	set	3968
   202  0000                     _PORTB	set	3969
   203  0000                     _TRISA	set	3986
   204  0000                     _TRISB	set	3987
   205  0000                     _ANSELB	set	3932
   206  00087D                     STR_1:
   207  00087D  00                 	db	0
   208  00087E  00                 	db	0	; dummy byte at the end
   209  0000                     
   210                           ; #config settings
   211                           
   212                           	psect	cinit
   213  004D22                     __pcinit:
   214                           	callstack 0
   215  004D22                     start_initialization:
   216                           	callstack 0
   217  004D22                     __initialization:
   218                           	callstack 0
   219                           
   220                           ; Clear objects allocated to BANK0 (10 bytes)
   221  004D22  EE00  F092         	lfsr	0,__pbssBANK0
   222  004D26  0E0A               	movlw	10
   223  004D28                     clear_0:
   224  004D28  6AEE               	clrf	postinc0,c
   225  004D2A  06E8               	decf	wreg,f,c
   226  004D2C  E1FD               	bnz	clear_0
   227  004D2E                     end_of_initialization:
   228                           	callstack 0
   229  004D2E                     __end_of__initialization:
   230                           	callstack 0
   231  004D2E  0E00               	movlw	low (__Lsmallconst shr (0+16))
   232  004D30  6EF8               	movwf	tblptru,c
   233  004D32  0E08               	movlw	high __Lsmallconst
   234  004D34  6EF7               	movwf	tblptrh,c
   235  004D36  0100               	movlb	0
   236  004D38  EF39  F025         	goto	_main	;jump to C main() function
   237                           
   238                           	psect	bssBANK0
   239  000092                     __pbssBANK0:
   240                           	callstack 0
   241  000092                     fabsf@F465:
   242                           	callstack 0
   243  000092                     	ds	4
   244  000096                     _errno:
   245                           	callstack 0
   246  000096                     	ds	2
   247  000098                     _seed:
   248                           	callstack 0
   249  000098                     	ds	4
   250                           
   251                           	psect	cstackBANK1
   252  000100                     __pcstackBANK1:
   253                           	callstack 0
   254  000100                     _powf$848:
   255                           	callstack 0
   256                           
   257                           ; 4 bytes @ 0x0
   258  000100                     	ds	4
   259  000104                     _powf$849:
   260                           	callstack 0
   261                           
   262                           ; 4 bytes @ 0x4
   263  000104                     	ds	4
   264  000108                     _powf$853:
   265                           	callstack 0
   266                           
   267                           ; 4 bytes @ 0x8
   268  000108                     	ds	4
   269  00010C                     _powf$854:
   270                           	callstack 0
   271                           
   272                           ; 4 bytes @ 0xC
   273  00010C                     	ds	4
   274  000110                     _powf$855:
   275                           	callstack 0
   276                           
   277                           ; 4 bytes @ 0x10
   278  000110                     	ds	4
   279  000114                     _powf$856:
   280                           	callstack 0
   281                           
   282                           ; 4 bytes @ 0x14
   283  000114                     	ds	4
   284  000118                     _powf$857:
   285                           	callstack 0
   286                           
   287                           ; 4 bytes @ 0x18
   288  000118                     	ds	4
   289  00011C                     powf@t2:
   290                           	callstack 0
   291                           
   292                           ; 4 bytes @ 0x1C
   293  00011C                     	ds	4
   294  000120                     powf@z_h:
   295                           	callstack 0
   296                           
   297                           ; 4 bytes @ 0x20
   298  000120                     	ds	4
   299  000124                     powf@z_l:
   300                           	callstack 0
   301                           
   302                           ; 4 bytes @ 0x24
   303  000124                     	ds	4
   304  000128                     powf@y1:
   305                           	callstack 0
   306                           
   307                           ; 4 bytes @ 0x28
   308  000128                     	ds	4
   309  00012C                     powf@i:
   310                           	callstack 0
   311                           
   312                           ; 4 bytes @ 0x2C
   313  00012C                     	ds	4
   314  000130                     powf@s_l:
   315                           	callstack 0
   316                           
   317                           ; 4 bytes @ 0x30
   318  000130                     	ds	4
   319  000134                     powf@t_l:
   320                           	callstack 0
   321                           
   322                           ; 4 bytes @ 0x34
   323  000134                     	ds	4
   324  000138                     _powf$847:
   325                           	callstack 0
   326                           
   327                           ; 4 bytes @ 0x38
   328  000138                     	ds	4
   329  00013C                     _powf$851:
   330                           	callstack 0
   331                           
   332                           ; 4 bytes @ 0x3C
   333  00013C                     	ds	4
   334  000140                     _powf$852:
   335                           	callstack 0
   336                           
   337                           ; 4 bytes @ 0x40
   338  000140                     	ds	4
   339  000144                     powf@w:
   340                           	callstack 0
   341                           
   342                           ; 4 bytes @ 0x44
   343  000144                     	ds	4
   344  000148                     _powf$845:
   345                           	callstack 0
   346                           
   347                           ; 4 bytes @ 0x48
   348  000148                     	ds	4
   349  00014C                     powf@r:
   350                           	callstack 0
   351                           
   352                           ; 4 bytes @ 0x4C
   353  00014C                     	ds	4
   354  000150                     powf@yisint:
   355                           	callstack 0
   356                           
   357                           ; 4 bytes @ 0x50
   358  000150                     	ds	4
   359  000154                     _powf$844:
   360                           	callstack 0
   361                           
   362                           ; 4 bytes @ 0x54
   363  000154                     	ds	4
   364  000158                     _powf$850:
   365                           	callstack 0
   366                           
   367                           ; 4 bytes @ 0x58
   368  000158                     	ds	4
   369  00015C                     powf@s:
   370                           	callstack 0
   371                           
   372                           ; 4 bytes @ 0x5C
   373  00015C                     	ds	4
   374  000160                     powf@hx:
   375                           	callstack 0
   376                           
   377                           ; 4 bytes @ 0x60
   378  000160                     	ds	4
   379  000164                     powf@p_l:
   380                           	callstack 0
   381                           
   382                           ; 4 bytes @ 0x64
   383  000164                     	ds	4
   384  000168                     powf@t_h:
   385                           	callstack 0
   386                           
   387                           ; 4 bytes @ 0x68
   388  000168                     	ds	4
   389  00016C                     powf@s_h:
   390                           	callstack 0
   391                           
   392                           ; 4 bytes @ 0x6C
   393  00016C                     	ds	4
   394  000170                     powf@ax:
   395                           	callstack 0
   396                           
   397                           ; 4 bytes @ 0x70
   398  000170                     	ds	4
   399  000174                     powf@u:
   400                           	callstack 0
   401                           
   402                           ; 4 bytes @ 0x74
   403  000174                     	ds	4
   404  000178                     powf@v:
   405                           	callstack 0
   406                           
   407                           ; 4 bytes @ 0x78
   408  000178                     	ds	4
   409  00017C                     powf@n:
   410                           	callstack 0
   411                           
   412                           ; 4 bytes @ 0x7C
   413  00017C                     	ds	4
   414  000180                     powf@t1:
   415                           	callstack 0
   416                           
   417                           ; 4 bytes @ 0x80
   418  000180                     	ds	4
   419  000184                     powf@hy:
   420                           	callstack 0
   421                           
   422                           ; 4 bytes @ 0x84
   423  000184                     	ds	4
   424  000188                     powf@sn:
   425                           	callstack 0
   426                           
   427                           ; 4 bytes @ 0x88
   428  000188                     	ds	4
   429  00018C                     powf@s2:
   430                           	callstack 0
   431                           
   432                           ; 4 bytes @ 0x8C
   433  00018C                     	ds	4
   434  000190                     powf@is:
   435                           	callstack 0
   436                           
   437                           ; 4 bytes @ 0x90
   438  000190                     	ds	4
   439  000194                     _powf$846:
   440                           	callstack 0
   441                           
   442                           ; 4 bytes @ 0x94
   443  000194                     	ds	4
   444  000198                     powf@iy:
   445                           	callstack 0
   446                           
   447                           ; 4 bytes @ 0x98
   448  000198                     	ds	4
   449  00019C                     powf@p_h:
   450                           	callstack 0
   451                           
   452                           ; 4 bytes @ 0x9C
   453  00019C                     	ds	4
   454  0001A0                     powf@k:
   455                           	callstack 0
   456                           
   457                           ; 4 bytes @ 0xA0
   458  0001A0                     	ds	4
   459  0001A4                     _powf$843:
   460                           	callstack 0
   461                           
   462                           ; 4 bytes @ 0xA4
   463  0001A4                     	ds	4
   464  0001A8                     powf@ix:
   465                           	callstack 0
   466                           
   467                           ; 4 bytes @ 0xA8
   468  0001A8                     	ds	4
   469  0001AC                     powf@j:
   470                           	callstack 0
   471                           
   472                           ; 4 bytes @ 0xAC
   473  0001AC                     	ds	4
   474  0001B0                     powf@t:
   475                           	callstack 0
   476                           
   477                           ; 4 bytes @ 0xB0
   478  0001B0                     	ds	4
   479  0001B4                     powf@z:
   480                           	callstack 0
   481                           
   482                           ; 4 bytes @ 0xB4
   483  0001B4                     	ds	4
   484  0001B8                     powf@__xc8_float_word:
   485                           	callstack 0
   486                           
   487                           ; 4 bytes @ 0xB8
   488  0001B8                     	ds	4
   489                           
   490                           	psect	cstackBANK0
   491  000060                     __pcstackBANK0:
   492                           	callstack 0
   493  000060                     sqrtf@s:
   494                           	callstack 0
   495                           
   496                           ; 4 bytes @ 0x0
   497  000060                     	ds	4
   498  000064                     sqrtf@i:
   499                           	callstack 0
   500                           
   501                           ; 4 bytes @ 0x4
   502  000064                     	ds	4
   503  000068                     sqrtf@__xc8_float_word:
   504                           	callstack 0
   505                           
   506                           ; 4 bytes @ 0x8
   507  000068                     	ds	4
   508  00006C                     sqrtf@q:
   509                           	callstack 0
   510                           
   511                           ; 4 bytes @ 0xC
   512  00006C                     	ds	4
   513  000070                     sqrtf@t:
   514                           	callstack 0
   515                           
   516                           ; 4 bytes @ 0x10
   517  000070                     	ds	4
   518  000074                     sqrtf@z:
   519                           	callstack 0
   520                           
   521                           ; 4 bytes @ 0x14
   522  000074                     	ds	4
   523  000078                     sqrtf@m:
   524                           	callstack 0
   525                           
   526                           ; 4 bytes @ 0x18
   527  000078                     	ds	4
   528  00007C                     sqrtf@r:
   529                           	callstack 0
   530                           
   531                           ; 4 bytes @ 0x1C
   532  00007C                     	ds	4
   533  000080                     sqrtf@ix:
   534                           	callstack 0
   535                           
   536                           ; 4 bytes @ 0x20
   537  000080                     	ds	4
   538  000084                     ?_powf:
   539                           	callstack 0
   540  000084                     powf@x:
   541                           	callstack 0
   542                           
   543                           ; 4 bytes @ 0x24
   544  000084                     	ds	4
   545  000088                     powf@y:
   546                           	callstack 0
   547                           
   548                           ; 4 bytes @ 0x28
   549  000088                     	ds	4
   550  00008C                     ?___fltol:
   551                           	callstack 0
   552  00008C                     ___fltol@f1:
   553                           	callstack 0
   554                           
   555                           ; 4 bytes @ 0x2C
   556  00008C                     	ds	4
   557  000090                     ??_main:
   558                           
   559                           ; 1 bytes @ 0x30
   560  000090                     	ds	1
   561  000091                     main@buttPress:
   562                           	callstack 0
   563                           
   564                           ; 1 bytes @ 0x31
   565  000091                     	ds	1
   566                           
   567                           	psect	cstackCOMRAM
   568  000001                     __pcstackCOMRAM:
   569                           	callstack 0
   570  000001                     ??_knightRider:
   571  000001                     ?_checkButton:
   572                           	callstack 0
   573  000001                     ?___fladd:
   574                           	callstack 0
   575  000001                     ?_fabsf:
   576                           	callstack 0
   577  000001                     ?_nanf:
   578                           	callstack 0
   579  000001                     ?___lmul:
   580                           	callstack 0
   581  000001                     ?___flneg:
   582                           	callstack 0
   583  000001                     ?___xxtofl:
   584                           	callstack 0
   585  000001                     nanf@s:
   586                           	callstack 0
   587  000001                     ___lmul@multiplier:
   588                           	callstack 0
   589  000001                     ___flneg@f1:
   590                           	callstack 0
   591  000001                     ___fladd@b:
   592                           	callstack 0
   593  000001                     ___xxtofl@val:
   594                           	callstack 0
   595  000001                     fabsf@x:
   596                           	callstack 0
   597                           
   598                           ; 4 bytes @ 0x0
   599  000001                     	ds	2
   600  000003                     ??_checkButton:
   601  000003                     knightRider@i:
   602                           	callstack 0
   603                           
   604                           ; 1 bytes @ 0x2
   605  000003                     	ds	1
   606  000004                     knightRider@i_78:
   607                           	callstack 0
   608                           
   609                           ; 1 bytes @ 0x3
   610  000004                     	ds	1
   611  000005                     ??___xxtofl:
   612  000005                     knightRider@i_79:
   613                           	callstack 0
   614  000005                     checkButton@j:
   615                           	callstack 0
   616  000005                     ___lmul@multiplicand:
   617                           	callstack 0
   618  000005                     ___fladd@a:
   619                           	callstack 0
   620  000005                     fabsf@u:
   621                           	callstack 0
   622  000005                     nanf@u:
   623                           	callstack 0
   624                           
   625                           ; 4 bytes @ 0x4
   626  000005                     	ds	1
   627  000006                     knightRider@i_80:
   628                           	callstack 0
   629                           
   630                           ; 1 bytes @ 0x5
   631  000006                     	ds	3
   632  000009                     ??___fladd:
   633  000009                     ___xxtofl@sign:
   634                           	callstack 0
   635  000009                     ___lmul@product:
   636                           	callstack 0
   637                           
   638                           ; 4 bytes @ 0x8
   639  000009                     	ds	1
   640  00000A                     ___xxtofl@exp:
   641                           	callstack 0
   642                           
   643                           ; 1 bytes @ 0x9
   644  00000A                     	ds	1
   645  00000B                     ___xxtofl@arg:
   646                           	callstack 0
   647                           
   648                           ; 4 bytes @ 0xA
   649  00000B                     	ds	2
   650  00000D                     ?_rand:
   651                           	callstack 0
   652  00000D                     ___fladd@signs:
   653                           	callstack 0
   654                           
   655                           ; 1 bytes @ 0xC
   656  00000D                     	ds	1
   657  00000E                     ___fladd@aexp:
   658                           	callstack 0
   659                           
   660                           ; 1 bytes @ 0xD
   661  00000E                     	ds	1
   662  00000F                     ??_rand:
   663  00000F                     ___fladd@bexp:
   664                           	callstack 0
   665                           
   666                           ; 1 bytes @ 0xE
   667  00000F                     	ds	1
   668  000010                     ___fladd@grs:
   669                           	callstack 0
   670                           
   671                           ; 1 bytes @ 0xF
   672  000010                     	ds	1
   673  000011                     ?___flmul:
   674                           	callstack 0
   675  000011                     ___flmul@b:
   676                           	callstack 0
   677                           
   678                           ; 4 bytes @ 0x10
   679  000011                     	ds	4
   680  000015                     ___flmul@a:
   681                           	callstack 0
   682                           
   683                           ; 4 bytes @ 0x14
   684  000015                     	ds	4
   685  000019                     ??___flmul:
   686                           
   687                           ; 1 bytes @ 0x18
   688  000019                     	ds	4
   689  00001D                     ___flmul@sign:
   690                           	callstack 0
   691                           
   692                           ; 1 bytes @ 0x1C
   693  00001D                     	ds	1
   694  00001E                     ___flmul@grs:
   695                           	callstack 0
   696                           
   697                           ; 4 bytes @ 0x1D
   698  00001E                     	ds	4
   699  000022                     ___flmul@aexp:
   700                           	callstack 0
   701                           
   702                           ; 1 bytes @ 0x21
   703  000022                     	ds	1
   704  000023                     ___flmul@bexp:
   705                           	callstack 0
   706                           
   707                           ; 1 bytes @ 0x22
   708  000023                     	ds	1
   709  000024                     ___flmul@prod:
   710                           	callstack 0
   711                           
   712                           ; 4 bytes @ 0x23
   713  000024                     	ds	4
   714  000028                     ___flmul@temp:
   715                           	callstack 0
   716                           
   717                           ; 2 bytes @ 0x27
   718  000028                     	ds	2
   719  00002A                     ?___flsub:
   720                           	callstack 0
   721  00002A                     ?_scalbnf:
   722                           	callstack 0
   723  00002A                     ___flsub@b:
   724                           	callstack 0
   725  00002A                     scalbnf@x:
   726                           	callstack 0
   727                           
   728                           ; 4 bytes @ 0x29
   729  00002A                     	ds	4
   730  00002E                     scalbnf@n:
   731                           	callstack 0
   732  00002E                     ___flsub@a:
   733                           	callstack 0
   734                           
   735                           ; 4 bytes @ 0x2D
   736  00002E                     	ds	2
   737  000030                     ??_scalbnf:
   738                           
   739                           ; 1 bytes @ 0x2F
   740  000030                     	ds	2
   741  000032                     ?___fldiv:
   742                           	callstack 0
   743  000032                     ___flge@ff1:
   744                           	callstack 0
   745  000032                     ___fldiv@b:
   746                           	callstack 0
   747                           
   748                           ; 4 bytes @ 0x31
   749  000032                     	ds	2
   750  000034                     scalbnf@u:
   751                           	callstack 0
   752                           
   753                           ; 4 bytes @ 0x33
   754  000034                     	ds	2
   755  000036                     ___flge@ff2:
   756                           	callstack 0
   757  000036                     ___fldiv@a:
   758                           	callstack 0
   759                           
   760                           ; 4 bytes @ 0x35
   761  000036                     	ds	2
   762  000038                     scalbnf@y:
   763                           	callstack 0
   764                           
   765                           ; 4 bytes @ 0x37
   766  000038                     	ds	2
   767  00003A                     ??___fldiv:
   768  00003A                     ??___flge:
   769                           
   770                           ; 1 bytes @ 0x39
   771  00003A                     	ds	4
   772  00003E                     ?_sqrtf:
   773                           	callstack 0
   774  00003E                     ___fldiv@rem:
   775                           	callstack 0
   776  00003E                     sqrtf@x:
   777                           	callstack 0
   778                           
   779                           ; 4 bytes @ 0x3D
   780  00003E                     	ds	4
   781  000042                     ??_sqrtf:
   782  000042                     ___fldiv@sign:
   783                           	callstack 0
   784                           
   785                           ; 1 bytes @ 0x41
   786  000042                     	ds	1
   787  000043                     ___fldiv@new_exp:
   788                           	callstack 0
   789                           
   790                           ; 2 bytes @ 0x42
   791  000043                     	ds	2
   792  000045                     ___fldiv@grs:
   793                           	callstack 0
   794                           
   795                           ; 4 bytes @ 0x44
   796  000045                     	ds	4
   797  000049                     ___fldiv@bexp:
   798                           	callstack 0
   799                           
   800                           ; 1 bytes @ 0x48
   801  000049                     	ds	1
   802  00004A                     ___fldiv@aexp:
   803                           	callstack 0
   804                           
   805                           ; 1 bytes @ 0x49
   806  00004A                     	ds	1
   807  00004B                     ??_powf:
   808                           
   809                           ; 1 bytes @ 0x4A
   810  00004B                     	ds	9
   811  000054                     ??___fltol:
   812                           
   813                           ; 1 bytes @ 0x53
   814  000054                     	ds	4
   815  000058                     ___fltol@sign1:
   816                           	callstack 0
   817                           
   818                           ; 1 bytes @ 0x57
   819  000058                     	ds	1
   820  000059                     ___fltol@exp1:
   821                           	callstack 0
   822                           
   823                           ; 1 bytes @ 0x58
   824  000059                     	ds	1
   825  00005A                     _rndNumGen$842:
   826                           	callstack 0
   827                           
   828                           ; 4 bytes @ 0x59
   829  00005A                     	ds	4
   830  00005E                     rndNumGen@i:
   831                           	callstack 0
   832                           
   833                           ; 2 bytes @ 0x5D
   834  00005E                     	ds	2
   835                           
   836 ;;
   837 ;;Main: autosize = 0, tempsize = 1, incstack = 0, save=0
   838 ;;
   839 ;; *************** function _main *****************
   840 ;; Defined at:
   841 ;;		line 20 in file "mainP5.c"
   842 ;; Parameters:    Size  Location     Type
   843 ;;		None
   844 ;; Auto vars:     Size  Location     Type
   845 ;;  buttPress       1   49[BANK0 ] unsigned char 
   846 ;; Return value:  Size  Location     Type
   847 ;;                  1    wreg      void 
   848 ;; Registers used:
   849 ;;		wreg, status,2, status,0, tblptrl, tblptrh, tblptru, prodl, prodh, cstack
   850 ;; Tracked objects:
   851 ;;		On entry : 0/0
   852 ;;		On exit  : 0/0
   853 ;;		Unchanged: 0/0
   854 ;; Data sizes:     COMRAM   BANK0   BANK1   BANK2   BANK3   BANK4   BANK5   BANK6   BANK7
   855 ;;      Params:         0       0       0       0       0       0       0       0       0
   856 ;;      Locals:         0       1       0       0       0       0       0       0       0
   857 ;;      Temps:          0       1       0       0       0       0       0       0       0
   858 ;;      Totals:         0       2       0       0       0       0       0       0       0
   859 ;;Total ram usage:        2 bytes
   860 ;; Hardware stack levels required when called: 4
   861 ;; This function calls:
   862 ;;		_checkButton
   863 ;;		_knightRider
   864 ;;		_portsInit
   865 ;;		_rndNumGen
   866 ;; This function is called by:
   867 ;;		Startup code after reset
   868 ;; This function uses a non-reentrant model
   869 ;;
   870                           
   871                           	psect	text0
   872  004A72                     __ptext0:
   873                           	callstack 0
   874  004A72                     _main:
   875                           	callstack 27
   876  004A72                     
   877                           ;mainP5.c: 21:     portsInit();
   878  004A72  ECAA  F026         	call	_portsInit	;wreg free
   879  004A76                     l3540:
   880                           
   881                           ;mainP5.c: 23:         rndNumGen();
   882  004A76  EC7D  F025         	call	_rndNumGen	;wreg free
   883  004A7A                     
   884                           ;mainP5.c: 24:         _delay((unsigned long)((500)*(1000000/4000.0)));
   885  004A7A  0EA3               	movlw	163
   886  004A7C  0100               	movlb	0	; () banked
   887  004A7E  6F90               	movwf	??_main& (0+255),b
   888  004A80  0E55               	movlw	85
   889  004A82                     u3997:
   890  004A82  2EE8               	decfsz	wreg,f,c
   891  004A84  D7FE               	bra	u3997
   892  004A86  2F90               	decfsz	??_main& (0+255),f,b
   893  004A88  D7FC               	bra	u3997
   894  004A8A                     
   895                           ;mainP5.c: 25:         uint8_t buttPress = checkButton();
   896  004A8A  EC9E  F026         	call	_checkButton	;wreg free
   897  004A8E  5001               	movf	?_checkButton^0,w,c
   898  004A90  0100               	movlb	0	; () banked
   899  004A92  6F91               	movwf	main@buttPress& (0+255),b
   900  004A94                     
   901                           ; BSR set to: 0
   902                           ;mainP5.c: 26:         if (PORTA == buttPress){
   903  004A94  5191               	movf	main@buttPress& (0+255),w,b
   904  004A96  1880               	xorwf	128,w,c	;volatile
   905  004A98  A4D8               	btfss	status,2,c
   906  004A9A  EF51  F025         	goto	u3971
   907  004A9E  EF53  F025         	goto	u3970
   908  004AA2                     u3971:
   909  004AA2  EF62  F025         	goto	l3554
   910  004AA6                     u3970:
   911  004AA6                     l3548:
   912                           
   913                           ; BSR set to: 0
   914                           ;mainP5.c: 27:             PORTA = 0;
   915  004AA6  0E00               	movlw	0
   916  004AA8  6E80               	movwf	128,c	;volatile
   917  004AAA                     
   918                           ; BSR set to: 0
   919                           ;mainP5.c: 28:             knightRider();
   920  004AAA  EC78  F022         	call	_knightRider	;wreg free
   921  004AAE                     
   922                           ;mainP5.c: 29:             _delay((unsigned long)((100)*(1000000/4000.0)));
   923  004AAE  0E21               	movlw	33
   924  004AB0  0100               	movlb	0	; () banked
   925  004AB2  6F90               	movwf	??_main& (0+255),b
   926  004AB4  0E76               	movlw	118
   927  004AB6                     u4007:
   928  004AB6  2EE8               	decfsz	wreg,f,c
   929  004AB8  D7FE               	bra	u4007
   930  004ABA  2F90               	decfsz	??_main& (0+255),f,b
   931  004ABC  D7FC               	bra	u4007
   932  004ABE  F000               	nop	
   933                           
   934                           ;mainP5.c: 30:         } else{
   935  004AC0  EF3B  F025         	goto	l3540
   936  004AC4                     l3554:
   937                           
   938                           ; BSR set to: 0
   939                           ;mainP5.c: 31:             _delay((unsigned long)((200)*(1000000/4000.0)));
   940  004AC4  0E41               	movlw	65
   941  004AC6  0100               	movlb	0	; () banked
   942  004AC8  6F90               	movwf	??_main& (0+255),b
   943  004ACA  0EEE               	movlw	238
   944  004ACC                     u4017:
   945  004ACC  2EE8               	decfsz	wreg,f,c
   946  004ACE  D7FE               	bra	u4017
   947  004AD0  2F90               	decfsz	??_main& (0+255),f,b
   948  004AD2  D7FC               	bra	u4017
   949  004AD4  F000               	nop	
   950  004AD6                     
   951                           ;mainP5.c: 32:             buttPress = checkButton();
   952  004AD6  EC9E  F026         	call	_checkButton	;wreg free
   953  004ADA  5001               	movf	?_checkButton^0,w,c
   954  004ADC  0100               	movlb	0	; () banked
   955  004ADE  6F91               	movwf	main@buttPress& (0+255),b
   956  004AE0                     
   957                           ; BSR set to: 0
   958                           ;mainP5.c: 33:             if (PORTA == buttPress){
   959  004AE0  5191               	movf	main@buttPress& (0+255),w,b
   960  004AE2  1880               	xorwf	128,w,c	;volatile
   961  004AE4  A4D8               	btfss	status,2,c
   962  004AE6  EF77  F025         	goto	u3981
   963  004AEA  EF79  F025         	goto	u3980
   964  004AEE                     u3981:
   965  004AEE  EF3B  F025         	goto	l3540
   966  004AF2                     u3980:
   967  004AF2  EF53  F025         	goto	l3548
   968  004AF6  EF00  F000         	goto	start
   969  004AFA                     __end_of_main:
   970                           	callstack 0
   971                           
   972 ;; *************** function _rndNumGen *****************
   973 ;; Defined at:
   974 ;;		line 90 in file "mainP5.c"
   975 ;; Parameters:    Size  Location     Type
   976 ;;		None
   977 ;; Auto vars:     Size  Location     Type
   978 ;;  i               2   93[COMRAM] int 
   979 ;; Return value:  Size  Location     Type
   980 ;;                  1    wreg      void 
   981 ;; Registers used:
   982 ;;		wreg, status,2, status,0, tblptrl, tblptrh, tblptru, prodl, prodh, cstack
   983 ;; Tracked objects:
   984 ;;		On entry : 0/0
   985 ;;		On exit  : 0/0
   986 ;;		Unchanged: 0/0
   987 ;; Data sizes:     COMRAM   BANK0   BANK1   BANK2   BANK3   BANK4   BANK5   BANK6   BANK7
   988 ;;      Params:         0       0       0       0       0       0       0       0       0
   989 ;;      Locals:         6       0       0       0       0       0       0       0       0
   990 ;;      Temps:          0       0       0       0       0       0       0       0       0
   991 ;;      Totals:         6       0       0       0       0       0       0       0       0
   992 ;;Total ram usage:        6 bytes
   993 ;; Hardware stack levels used: 1
   994 ;; Hardware stack levels required when called: 3
   995 ;; This function calls:
   996 ;;		___fltol
   997 ;;		___xxtofl
   998 ;;		_powf
   999 ;;		_rand
  1000 ;; This function is called by:
  1001 ;;		_main
  1002 ;; This function uses a non-reentrant model
  1003 ;;
  1004                           
  1005                           	psect	text1
  1006  004AFA                     __ptext1:
  1007                           	callstack 0
  1008  004AFA                     _rndNumGen:
  1009                           	callstack 27
  1010  004AFA                     
  1011                           ;mainP5.c: 91:     int i = (rand()%8);
  1012  004AFA  ECBB  F025         	call	_rand	;wreg free
  1013  004AFE  0E07               	movlw	7
  1014  004B00  140D               	andwf	?_rand^0,w,c
  1015  004B02  6E5E               	movwf	rndNumGen@i^0,c
  1016  004B04  6A5F               	clrf	(rndNumGen@i+1)^0,c
  1017                           
  1018                           ;mainP5.c: 92:     i = powf(2,i);
  1019  004B06  C05E  F001         	movff	rndNumGen@i,___xxtofl@val
  1020  004B0A  C05F  F002         	movff	rndNumGen@i+1,___xxtofl@val+1
  1021  004B0E  0E00               	movlw	0
  1022  004B10  BE02               	btfsc	(___xxtofl@val+1)^0,7,c
  1023  004B12  0EFF               	movlw	-1
  1024  004B14  6E03               	movwf	(___xxtofl@val+2)^0,c
  1025  004B16  6E04               	movwf	(___xxtofl@val+3)^0,c
  1026  004B18  0E01               	movlw	1
  1027  004B1A  EC59  F023         	call	___xxtofl
  1028  004B1E  C001  F05A         	movff	?___xxtofl,_rndNumGen$842
  1029  004B22  C002  F05B         	movff	?___xxtofl+1,_rndNumGen$842+1
  1030  004B26  C003  F05C         	movff	?___xxtofl+2,_rndNumGen$842+2
  1031  004B2A  C004  F05D         	movff	?___xxtofl+3,_rndNumGen$842+3
  1032  004B2E                     
  1033                           ;mainP5.c: 92:     i = powf(2,i);
  1034  004B2E  C05A  F088         	movff	_rndNumGen$842,powf@y
  1035  004B32  C05B  F089         	movff	_rndNumGen$842+1,powf@y+1
  1036  004B36  C05C  F08A         	movff	_rndNumGen$842+2,powf@y+2
  1037  004B3A  C05D  F08B         	movff	_rndNumGen$842+3,powf@y+3
  1038  004B3E  0E00               	movlw	0
  1039  004B40  0100               	movlb	0	; () banked
  1040  004B42  6F84               	movwf	powf@x& (0+255),b
  1041  004B44  0E00               	movlw	0
  1042  004B46  6F85               	movwf	(powf@x+1)& (0+255),b
  1043  004B48  0E00               	movlw	0
  1044  004B4A  6F86               	movwf	(powf@x+2)& (0+255),b
  1045  004B4C  0E40               	movlw	64
  1046  004B4E  6F87               	movwf	(powf@x+3)& (0+255),b
  1047  004B50  EC40  F004         	call	_powf	;wreg free
  1048  004B54  C084  F08C         	movff	?_powf,___fltol@f1
  1049  004B58  C085  F08D         	movff	?_powf+1,___fltol@f1+1
  1050  004B5C  C086  F08E         	movff	?_powf+2,___fltol@f1+2
  1051  004B60  C087  F08F         	movff	?_powf+3,___fltol@f1+3
  1052  004B64  EC33  F024         	call	___fltol	;wreg free
  1053  004B68  C08C  F05E         	movff	?___fltol,rndNumGen@i
  1054  004B6C  C08D  F05F         	movff	?___fltol+1,rndNumGen@i+1
  1055  004B70                     
  1056                           ;mainP5.c: 93:     PORTA = i;
  1057  004B70  C05E  FF80         	movff	rndNumGen@i,3968	;volatile
  1058  004B74  0012               	return		;funcret
  1059  004B76                     __end_of_rndNumGen:
  1060                           	callstack 0
  1061                           
  1062 ;; *************** function _rand *****************
  1063 ;; Defined at:
  1064 ;;		line 11 in file "D:\MPLABxIDE\pic\sources\c99\common\rand.c"
  1065 ;; Parameters:    Size  Location     Type
  1066 ;;		None
  1067 ;; Auto vars:     Size  Location     Type
  1068 ;;		None
  1069 ;; Return value:  Size  Location     Type
  1070 ;;                  2   12[COMRAM] int 
  1071 ;; Registers used:
  1072 ;;		wreg, status,2, status,0, cstack
  1073 ;; Tracked objects:
  1074 ;;		On entry : 0/0
  1075 ;;		On exit  : 0/0
  1076 ;;		Unchanged: 0/0
  1077 ;; Data sizes:     COMRAM   BANK0   BANK1   BANK2   BANK3   BANK4   BANK5   BANK6   BANK7
  1078 ;;      Params:         2       0       0       0       0       0       0       0       0
  1079 ;;      Locals:         0       0       0       0       0       0       0       0       0
  1080 ;;      Temps:          4       0       0       0       0       0       0       0       0
  1081 ;;      Totals:         6       0       0       0       0       0       0       0       0
  1082 ;;Total ram usage:        6 bytes
  1083 ;; Hardware stack levels used: 1
  1084 ;; Hardware stack levels required when called: 1
  1085 ;; This function calls:
  1086 ;;		___lmul
  1087 ;; This function is called by:
  1088 ;;		_rndNumGen
  1089 ;; This function uses a non-reentrant model
  1090 ;;
  1091                           
  1092                           	psect	text2
  1093  004B76                     __ptext2:
  1094                           	callstack 0
  1095  004B76                     _rand:
  1096                           	callstack 28
  1097  004B76  C098  F001         	movff	_seed,___lmul@multiplier
  1098  004B7A  C099  F002         	movff	_seed+1,___lmul@multiplier+1
  1099  004B7E  C09A  F003         	movff	_seed+2,___lmul@multiplier+2
  1100  004B82  C09B  F004         	movff	_seed+3,___lmul@multiplier+3
  1101  004B86  0E2D               	movlw	45
  1102  004B88  6E05               	movwf	___lmul@multiplicand^0,c
  1103  004B8A  0E7F               	movlw	127
  1104  004B8C  6E06               	movwf	(___lmul@multiplicand+1)^0,c
  1105  004B8E  0E95               	movlw	149
  1106  004B90  6E07               	movwf	(___lmul@multiplicand+2)^0,c
  1107  004B92  0E4C               	movlw	76
  1108  004B94  6E08               	movwf	(___lmul@multiplicand+3)^0,c
  1109  004B96  ECF2  F025         	call	___lmul	;wreg free
  1110  004B9A  0E01               	movlw	1
  1111  004B9C  2401               	addwf	?___lmul^0,w,c
  1112  004B9E  0100               	movlb	0	; () banked
  1113  004BA0  6F98               	movwf	_seed& (0+255),b
  1114  004BA2  0E00               	movlw	0
  1115  004BA4  2002               	addwfc	(?___lmul+1)^0,w,c
  1116  004BA6  6F99               	movwf	(_seed+1)& (0+255),b
  1117  004BA8  0E00               	movlw	0
  1118  004BAA  2003               	addwfc	(?___lmul+2)^0,w,c
  1119  004BAC  6F9A               	movwf	(_seed+2)& (0+255),b
  1120  004BAE  0E00               	movlw	0
  1121  004BB0  2004               	addwfc	(?___lmul+3)^0,w,c
  1122  004BB2  6F9B               	movwf	(_seed+3)& (0+255),b
  1123  004BB4                     
  1124                           ; BSR set to: 0
  1125  004BB4  C098  F00F         	movff	_seed,??_rand
  1126  004BB8  C099  F010         	movff	_seed+1,??_rand+1
  1127  004BBC  C09A  F011         	movff	_seed+2,??_rand+2
  1128  004BC0  C09B  F012         	movff	_seed+3,??_rand+3
  1129  004BC4  0E12               	movlw	18
  1130  004BC6  EFEA  F025         	goto	u3200
  1131  004BCA                     u3205:
  1132  004BCA  90D8               	bcf	status,0,c
  1133  004BCC  3212               	rrcf	(??_rand+3)^0,f,c
  1134  004BCE  3211               	rrcf	(??_rand+2)^0,f,c
  1135  004BD0  3210               	rrcf	(??_rand+1)^0,f,c
  1136  004BD2  320F               	rrcf	??_rand^0,f,c
  1137  004BD4                     u3200:
  1138  004BD4  2EE8               	decfsz	wreg,f,c
  1139  004BD6  EFE5  F025         	goto	u3205
  1140  004BDA  C00F  F00D         	movff	??_rand,?_rand
  1141  004BDE  C010  F00E         	movff	??_rand+1,?_rand+1
  1142  004BE2                     
  1143                           ; BSR set to: 0
  1144  004BE2  0012               	return		;funcret
  1145  004BE4                     __end_of_rand:
  1146                           	callstack 0
  1147                           
  1148 ;; *************** function ___lmul *****************
  1149 ;; Defined at:
  1150 ;;		line 15 in file "D:\MPLABxIDE\pic\sources\c99\common\Umul32.c"
  1151 ;; Parameters:    Size  Location     Type
  1152 ;;  multiplier      4    0[COMRAM] unsigned long 
  1153 ;;  multiplicand    4    4[COMRAM] unsigned long 
  1154 ;; Auto vars:     Size  Location     Type
  1155 ;;  product         4    8[COMRAM] unsigned long 
  1156 ;; Return value:  Size  Location     Type
  1157 ;;                  4    0[COMRAM] unsigned long 
  1158 ;; Registers used:
  1159 ;;		wreg, status,2, status,0
  1160 ;; Tracked objects:
  1161 ;;		On entry : 0/0
  1162 ;;		On exit  : 0/0
  1163 ;;		Unchanged: 0/0
  1164 ;; Data sizes:     COMRAM   BANK0   BANK1   BANK2   BANK3   BANK4   BANK5   BANK6   BANK7
  1165 ;;      Params:         8       0       0       0       0       0       0       0       0
  1166 ;;      Locals:         4       0       0       0       0       0       0       0       0
  1167 ;;      Temps:          0       0       0       0       0       0       0       0       0
  1168 ;;      Totals:        12       0       0       0       0       0       0       0       0
  1169 ;;Total ram usage:       12 bytes
  1170 ;; Hardware stack levels used: 1
  1171 ;; This function calls:
  1172 ;;		Nothing
  1173 ;; This function is called by:
  1174 ;;		_rand
  1175 ;; This function uses a non-reentrant model
  1176 ;;
  1177                           
  1178                           	psect	text3
  1179  004BE4                     __ptext3:
  1180                           	callstack 0
  1181  004BE4                     ___lmul:
  1182                           	callstack 28
  1183  004BE4  0E00               	movlw	0
  1184  004BE6  6E09               	movwf	___lmul@product^0,c
  1185  004BE8  0E00               	movlw	0
  1186  004BEA  6E0A               	movwf	(___lmul@product+1)^0,c
  1187  004BEC  0E00               	movlw	0
  1188  004BEE  6E0B               	movwf	(___lmul@product+2)^0,c
  1189  004BF0  0E00               	movlw	0
  1190  004BF2  6E0C               	movwf	(___lmul@product+3)^0,c
  1191  004BF4                     l2632:
  1192  004BF4  A001               	btfss	___lmul@multiplier^0,0,c
  1193  004BF6  EFFF  F025         	goto	u2631
  1194  004BFA  EF01  F026         	goto	u2630
  1195  004BFE                     u2631:
  1196  004BFE  EF09  F026         	goto	l2636
  1197  004C02                     u2630:
  1198  004C02  5005               	movf	___lmul@multiplicand^0,w,c
  1199  004C04  2609               	addwf	___lmul@product^0,f,c
  1200  004C06  5006               	movf	(___lmul@multiplicand+1)^0,w,c
  1201  004C08  220A               	addwfc	(___lmul@product+1)^0,f,c
  1202  004C0A  5007               	movf	(___lmul@multiplicand+2)^0,w,c
  1203  004C0C  220B               	addwfc	(___lmul@product+2)^0,f,c
  1204  004C0E  5008               	movf	(___lmul@multiplicand+3)^0,w,c
  1205  004C10  220C               	addwfc	(___lmul@product+3)^0,f,c
  1206  004C12                     l2636:
  1207  004C12  90D8               	bcf	status,0,c
  1208  004C14  3605               	rlcf	___lmul@multiplicand^0,f,c
  1209  004C16  3606               	rlcf	(___lmul@multiplicand+1)^0,f,c
  1210  004C18  3607               	rlcf	(___lmul@multiplicand+2)^0,f,c
  1211  004C1A  3608               	rlcf	(___lmul@multiplicand+3)^0,f,c
  1212  004C1C  90D8               	bcf	status,0,c
  1213  004C1E  3204               	rrcf	(___lmul@multiplier+3)^0,f,c
  1214  004C20  3203               	rrcf	(___lmul@multiplier+2)^0,f,c
  1215  004C22  3202               	rrcf	(___lmul@multiplier+1)^0,f,c
  1216  004C24  3201               	rrcf	___lmul@multiplier^0,f,c
  1217  004C26  5001               	movf	___lmul@multiplier^0,w,c
  1218  004C28  1002               	iorwf	(___lmul@multiplier+1)^0,w,c
  1219  004C2A  1003               	iorwf	(___lmul@multiplier+2)^0,w,c
  1220  004C2C  1004               	iorwf	(___lmul@multiplier+3)^0,w,c
  1221  004C2E  A4D8               	btfss	status,2,c
  1222  004C30  EF1C  F026         	goto	u2641
  1223  004C34  EF1E  F026         	goto	u2640
  1224  004C38                     u2641:
  1225  004C38  EFFA  F025         	goto	l2632
  1226  004C3C                     u2640:
  1227  004C3C  C009  F001         	movff	___lmul@product,?___lmul
  1228  004C40  C00A  F002         	movff	___lmul@product+1,?___lmul+1
  1229  004C44  C00B  F003         	movff	___lmul@product+2,?___lmul+2
  1230  004C48  C00C  F004         	movff	___lmul@product+3,?___lmul+3
  1231  004C4C  0012               	return		;funcret
  1232  004C4E                     __end_of___lmul:
  1233                           	callstack 0
  1234                           
  1235 ;; *************** function _powf *****************
  1236 ;; Defined at:
  1237 ;;		line 53 in file "D:\MPLABxIDE\pic\sources\c99\common\powf.c"
  1238 ;; Parameters:    Size  Location     Type
  1239 ;;  x               4   36[BANK0 ] float 
  1240 ;;  y               4   40[BANK0 ] float 
  1241 ;; Auto vars:     Size  Location     Type
  1242 ;;  s2              4  140[BANK1 ] float 
  1243 ;;  s_h             4  108[BANK1 ] float 
  1244 ;;  t_h             4  104[BANK1 ] float 
  1245 ;;  t_l             4   52[BANK1 ] float 
  1246 ;;  s_l             4   48[BANK1 ] float 
  1247 ;;  __xc8_float_    4  184[BANK1 ] struct .
  1248 ;;  z               4  180[BANK1 ] float 
  1249 ;;  t               4  176[BANK1 ] float 
  1250 ;;  j               4  172[BANK1 ] long 
  1251 ;;  ix              4  168[BANK1 ] long 
  1252 ;;  k               4  160[BANK1 ] long 
  1253 ;;  p_h             4  156[BANK1 ] float 
  1254 ;;  iy              4  152[BANK1 ] long 
  1255 ;;  is              4  144[BANK1 ] long 
  1256 ;;  sn              4  136[BANK1 ] float 
  1257 ;;  hy              4  132[BANK1 ] long 
  1258 ;;  t1              4  128[BANK1 ] float 
  1259 ;;  n               4  124[BANK1 ] long 
  1260 ;;  v               4  120[BANK1 ] float 
  1261 ;;  u               4  116[BANK1 ] float 
  1262 ;;  ax              4  112[BANK1 ] float 
  1263 ;;  p_l             4  100[BANK1 ] float 
  1264 ;;  hx              4   96[BANK1 ] long 
  1265 ;;  s               4   92[BANK1 ] float 
  1266 ;;  yisint          4   80[BANK1 ] long 
  1267 ;;  r               4   76[BANK1 ] float 
  1268 ;;  w               4   68[BANK1 ] float 
  1269 ;;  i               4   44[BANK1 ] long 
  1270 ;;  y1              4   40[BANK1 ] float 
  1271 ;;  z_l             4   36[BANK1 ] float 
  1272 ;;  z_h             4   32[BANK1 ] float 
  1273 ;;  t2              4   28[BANK1 ] float 
  1274 ;; Return value:  Size  Location     Type
  1275 ;;                  4   36[BANK0 ] float 
  1276 ;; Registers used:
  1277 ;;		wreg, status,2, status,0, tblptrl, tblptrh, tblptru, prodl, prodh, cstack
  1278 ;; Tracked objects:
  1279 ;;		On entry : 0/0
  1280 ;;		On exit  : 0/0
  1281 ;;		Unchanged: 0/0
  1282 ;; Data sizes:     COMRAM   BANK0   BANK1   BANK2   BANK3   BANK4   BANK5   BANK6   BANK7
  1283 ;;      Params:         0       8       0       0       0       0       0       0       0
  1284 ;;      Locals:         0       0     188       0       0       0       0       0       0
  1285 ;;      Temps:          9       0       0       0       0       0       0       0       0
  1286 ;;      Totals:         9       8     188       0       0       0       0       0       0
  1287 ;;Total ram usage:      205 bytes
  1288 ;; Hardware stack levels used: 1
  1289 ;; Hardware stack levels required when called: 2
  1290 ;; This function calls:
  1291 ;;		___fladd
  1292 ;;		___fldiv
  1293 ;;		___flge
  1294 ;;		___flmul
  1295 ;;		___flneg
  1296 ;;		___flsub
  1297 ;;		___xxtofl
  1298 ;;		_fabsf
  1299 ;;		_scalbnf
  1300 ;;		_sqrtf
  1301 ;; This function is called by:
  1302 ;;		_rndNumGen
  1303 ;; This function uses a non-reentrant model
  1304 ;;
  1305                           
  1306                           	psect	text4
  1307  000880                     __ptext4:
  1308                           	callstack 0
  1309  000880                     _powf:
  1310                           	callstack 27
  1311  000880  C084  F1B8         	movff	powf@x,powf@__xc8_float_word
  1312  000884  C085  F1B9         	movff	powf@x+1,powf@__xc8_float_word+1
  1313  000888  C086  F1BA         	movff	powf@x+2,powf@__xc8_float_word+2
  1314  00088C  C087  F1BB         	movff	powf@x+3,powf@__xc8_float_word+3
  1315  000890  C1B8  F160         	movff	powf@__xc8_float_word,powf@hx
  1316  000894  C1B9  F161         	movff	powf@__xc8_float_word+1,powf@hx+1
  1317  000898  C1BA  F162         	movff	powf@__xc8_float_word+2,powf@hx+2
  1318  00089C  C1BB  F163         	movff	powf@__xc8_float_word+3,powf@hx+3
  1319  0008A0  C088  F1B8         	movff	powf@y,powf@__xc8_float_word
  1320  0008A4  C089  F1B9         	movff	powf@y+1,powf@__xc8_float_word+1
  1321  0008A8  C08A  F1BA         	movff	powf@y+2,powf@__xc8_float_word+2
  1322  0008AC  C08B  F1BB         	movff	powf@y+3,powf@__xc8_float_word+3
  1323  0008B0  C1B8  F184         	movff	powf@__xc8_float_word,powf@hy
  1324  0008B4  C1B9  F185         	movff	powf@__xc8_float_word+1,powf@hy+1
  1325  0008B8  C1BA  F186         	movff	powf@__xc8_float_word+2,powf@hy+2
  1326  0008BC  C1BB  F187         	movff	powf@__xc8_float_word+3,powf@hy+3
  1327  0008C0  0EFF               	movlw	255
  1328  0008C2  0101               	movlb	1	; () banked
  1329  0008C4  1560               	andwf	powf@hx& (0+255),w,b
  1330  0008C6  6FA8               	movwf	powf@ix& (0+255),b
  1331  0008C8  0EFF               	movlw	255
  1332  0008CA  1561               	andwf	(powf@hx+1)& (0+255),w,b
  1333  0008CC  6FA9               	movwf	(powf@ix+1)& (0+255),b
  1334  0008CE  0EFF               	movlw	255
  1335  0008D0  1562               	andwf	(powf@hx+2)& (0+255),w,b
  1336  0008D2  6FAA               	movwf	(powf@ix+2)& (0+255),b
  1337  0008D4  0E7F               	movlw	127
  1338  0008D6  1563               	andwf	(powf@hx+3)& (0+255),w,b
  1339  0008D8  6FAB               	movwf	(powf@ix+3)& (0+255),b
  1340  0008DA  0EFF               	movlw	255
  1341  0008DC  1584               	andwf	powf@hy& (0+255),w,b
  1342  0008DE  6F98               	movwf	powf@iy& (0+255),b
  1343  0008E0  0EFF               	movlw	255
  1344  0008E2  1585               	andwf	(powf@hy+1)& (0+255),w,b
  1345  0008E4  6F99               	movwf	(powf@iy+1)& (0+255),b
  1346  0008E6  0EFF               	movlw	255
  1347  0008E8  1586               	andwf	(powf@hy+2)& (0+255),w,b
  1348  0008EA  6F9A               	movwf	(powf@iy+2)& (0+255),b
  1349  0008EC  0E7F               	movlw	127
  1350  0008EE  1587               	andwf	(powf@hy+3)& (0+255),w,b
  1351  0008F0  6F9B               	movwf	(powf@iy+3)& (0+255),b
  1352  0008F2  5198               	movf	powf@iy& (0+255),w,b
  1353  0008F4  1199               	iorwf	(powf@iy+1)& (0+255),w,b
  1354  0008F6  119A               	iorwf	(powf@iy+2)& (0+255),w,b
  1355  0008F8  119B               	iorwf	(powf@iy+3)& (0+255),w,b
  1356  0008FA  A4D8               	btfss	status,2,c
  1357  0008FC  EF82  F004         	goto	u3211
  1358  000900  EF84  F004         	goto	u3210
  1359  000904                     u3211:
  1360  000904  EF8F  F004         	goto	l2976
  1361  000908                     u3210:
  1362  000908                     
  1363                           ; BSR set to: 1
  1364  000908  0E00               	movlw	0
  1365  00090A  0100               	movlb	0	; () banked
  1366  00090C  6F84               	movwf	?_powf& (0+255),b
  1367  00090E  0E00               	movlw	0
  1368  000910  6F85               	movwf	(?_powf+1)& (0+255),b
  1369  000912  0E80               	movlw	128
  1370  000914  6F86               	movwf	(?_powf+2)& (0+255),b
  1371  000916  0E3F               	movlw	63
  1372  000918  6F87               	movwf	(?_powf+3)& (0+255),b
  1373  00091A  EFBB  F018         	goto	l801
  1374  00091E                     l2976:
  1375                           
  1376                           ; BSR set to: 1
  1377  00091E  0E80               	movlw	128
  1378  000920  1962               	xorwf	(powf@hx+2)& (0+255),w,b
  1379  000922  E109               	bnz	u3221
  1380  000924  0E3F               	movlw	63
  1381  000926  1963               	xorwf	(powf@hx+3)& (0+255),w,b
  1382  000928  1160               	iorwf	powf@hx& (0+255),w,b
  1383  00092A  1161               	iorwf	(powf@hx+1)& (0+255),w,b
  1384  00092C  A4D8               	btfss	status,2,c
  1385  00092E  EF9B  F004         	goto	u3221
  1386  000932  EF9D  F004         	goto	u3220
  1387  000936                     u3221:
  1388  000936  EFA8  F004         	goto	l2982
  1389  00093A                     u3220:
  1390  00093A                     
  1391                           ; BSR set to: 1
  1392  00093A  0E00               	movlw	0
  1393  00093C  0100               	movlb	0	; () banked
  1394  00093E  6F84               	movwf	?_powf& (0+255),b
  1395  000940  0E00               	movlw	0
  1396  000942  6F85               	movwf	(?_powf+1)& (0+255),b
  1397  000944  0E80               	movlw	128
  1398  000946  6F86               	movwf	(?_powf+2)& (0+255),b
  1399  000948  0E3F               	movlw	63
  1400  00094A  6F87               	movwf	(?_powf+3)& (0+255),b
  1401  00094C  EFBB  F018         	goto	l801
  1402  000950                     l2982:
  1403                           
  1404                           ; BSR set to: 1
  1405  000950  BFAB               	btfsc	(powf@ix+3)& (0+255),7,b
  1406  000952  EFB9  F004         	goto	u3230
  1407  000956  05A8               	decf	powf@ix& (0+255),w,b
  1408  000958  0E00               	movlw	0
  1409  00095A  59A9               	subwfb	(powf@ix+1)& (0+255),w,b
  1410  00095C  0E80               	movlw	128
  1411  00095E  59AA               	subwfb	(powf@ix+2)& (0+255),w,b
  1412  000960  0E7F               	movlw	127
  1413  000962  59AB               	subwfb	(powf@ix+3)& (0+255),w,b
  1414  000964  B0D8               	btfsc	status,0,c
  1415  000966  EFB7  F004         	goto	u3231
  1416  00096A  EFB9  F004         	goto	u3230
  1417  00096E                     u3231:
  1418  00096E  EFCA  F004         	goto	l2986
  1419  000972                     u3230:
  1420  000972                     
  1421                           ; BSR set to: 1
  1422  000972  BF9B               	btfsc	(powf@iy+3)& (0+255),7,b
  1423  000974  EFC8  F004         	goto	u3241
  1424  000978  0598               	decf	powf@iy& (0+255),w,b
  1425  00097A  0E00               	movlw	0
  1426  00097C  5999               	subwfb	(powf@iy+1)& (0+255),w,b
  1427  00097E  0E80               	movlw	128
  1428  000980  599A               	subwfb	(powf@iy+2)& (0+255),w,b
  1429  000982  0E7F               	movlw	127
  1430  000984  599B               	subwfb	(powf@iy+3)& (0+255),w,b
  1431  000986  A0D8               	btfss	status,0,c
  1432  000988  EFC8  F004         	goto	u3241
  1433  00098C  EFCA  F004         	goto	u3240
  1434  000990                     u3241:
  1435  000990  EFE6  F004         	goto	l2990
  1436  000994                     u3240:
  1437  000994                     l2986:
  1438                           
  1439                           ; BSR set to: 1
  1440  000994  C084  F001         	movff	powf@x,___fladd@b
  1441  000998  C085  F002         	movff	powf@x+1,___fladd@b+1
  1442  00099C  C086  F003         	movff	powf@x+2,___fladd@b+2
  1443  0009A0  C087  F004         	movff	powf@x+3,___fladd@b+3
  1444  0009A4  C088  F005         	movff	powf@y,___fladd@a
  1445  0009A8  C089  F006         	movff	powf@y+1,___fladd@a+1
  1446  0009AC  C08A  F007         	movff	powf@y+2,___fladd@a+2
  1447  0009B0  C08B  F008         	movff	powf@y+3,___fladd@a+3
  1448  0009B4  EC1C  F01B         	call	___fladd	;wreg free
  1449  0009B8  C001  F084         	movff	?___fladd,?_powf
  1450  0009BC  C002  F085         	movff	?___fladd+1,?_powf+1
  1451  0009C0  C003  F086         	movff	?___fladd+2,?_powf+2
  1452  0009C4  C004  F087         	movff	?___fladd+3,?_powf+3
  1453  0009C8  EFBB  F018         	goto	l801
  1454  0009CC                     l2990:
  1455                           
  1456                           ; BSR set to: 1
  1457  0009CC  0E00               	movlw	0
  1458  0009CE  6F50               	movwf	powf@yisint& (0+255),b
  1459  0009D0  0E00               	movlw	0
  1460  0009D2  6F51               	movwf	(powf@yisint+1)& (0+255),b
  1461  0009D4  0E00               	movlw	0
  1462  0009D6  6F52               	movwf	(powf@yisint+2)& (0+255),b
  1463  0009D8  0E00               	movlw	0
  1464  0009DA  6F53               	movwf	(powf@yisint+3)& (0+255),b
  1465  0009DC                     
  1466                           ; BSR set to: 1
  1467  0009DC  BF63               	btfsc	(powf@hx+3)& (0+255),7,b
  1468  0009DE  EFF5  F004         	goto	u3250
  1469  0009E2  EFF3  F004         	goto	u3251
  1470  0009E6                     u3251:
  1471  0009E6  EFA0  F005         	goto	l806
  1472  0009EA                     u3250:
  1473  0009EA                     
  1474                           ; BSR set to: 1
  1475  0009EA  BF9B               	btfsc	(powf@iy+3)& (0+255),7,b
  1476  0009EC  EF01  F005         	goto	u3261
  1477  0009F0  0E80               	movlw	128
  1478  0009F2  5D9A               	subwf	(powf@iy+2)& (0+255),w,b
  1479  0009F4  0E4B               	movlw	75
  1480  0009F6  599B               	subwfb	(powf@iy+3)& (0+255),w,b
  1481  0009F8  A0D8               	btfss	status,0,c
  1482  0009FA  EF01  F005         	goto	u3261
  1483  0009FE  EF03  F005         	goto	u3260
  1484  000A02                     u3261:
  1485  000A02  EF0D  F005         	goto	l2998
  1486  000A06                     u3260:
  1487  000A06                     
  1488                           ; BSR set to: 1
  1489  000A06  0E02               	movlw	2
  1490  000A08  6F50               	movwf	powf@yisint& (0+255),b
  1491  000A0A  0E00               	movlw	0
  1492  000A0C  6F51               	movwf	(powf@yisint+1)& (0+255),b
  1493  000A0E  0E00               	movlw	0
  1494  000A10  6F52               	movwf	(powf@yisint+2)& (0+255),b
  1495  000A12  0E00               	movlw	0
  1496  000A14  6F53               	movwf	(powf@yisint+3)& (0+255),b
  1497  000A16  EFA0  F005         	goto	l806
  1498  000A1A                     l2998:
  1499                           
  1500                           ; BSR set to: 1
  1501  000A1A  BF9B               	btfsc	(powf@iy+3)& (0+255),7,b
  1502  000A1C  EF19  F005         	goto	u3271
  1503  000A20  0E80               	movlw	128
  1504  000A22  5D9A               	subwf	(powf@iy+2)& (0+255),w,b
  1505  000A24  0E3F               	movlw	63
  1506  000A26  599B               	subwfb	(powf@iy+3)& (0+255),w,b
  1507  000A28  A0D8               	btfss	status,0,c
  1508  000A2A  EF19  F005         	goto	u3271
  1509  000A2E  EF1B  F005         	goto	u3270
  1510  000A32                     u3271:
  1511  000A32  EFA0  F005         	goto	l806
  1512  000A36                     u3270:
  1513  000A36                     
  1514                           ; BSR set to: 1
  1515  000A36  0E17               	movlw	23
  1516  000A38  6E4B               	movwf	??_powf^0,c
  1517  000A3A  C198  F04C         	movff	powf@iy,??_powf+1
  1518  000A3E  C199  F04D         	movff	powf@iy+1,??_powf+2
  1519  000A42  C19A  F04E         	movff	powf@iy+2,??_powf+3
  1520  000A46  C19B  F04F         	movff	powf@iy+3,??_powf+4
  1521  000A4A                     u3285:
  1522  000A4A  664B               	tstfsz	??_powf^0,c
  1523  000A4C  EF2A  F005         	goto	u3286
  1524  000A50  EF32  F005         	goto	u3287
  1525  000A54                     u3286:
  1526  000A54  344F               	rlcf	(??_powf+4)^0,w,c
  1527  000A56  324F               	rrcf	(??_powf+4)^0,f,c
  1528  000A58  324E               	rrcf	(??_powf+3)^0,f,c
  1529  000A5A  324D               	rrcf	(??_powf+2)^0,f,c
  1530  000A5C  324C               	rrcf	(??_powf+1)^0,f,c
  1531  000A5E  2E4B               	decfsz	??_powf^0,f,c
  1532  000A60  EF25  F005         	goto	u3285
  1533  000A64                     u3287:
  1534  000A64  0E81               	movlw	129
  1535  000A66  244C               	addwf	(??_powf+1)^0,w,c
  1536  000A68  0101               	movlb	1	; () banked
  1537  000A6A  6FA0               	movwf	powf@k& (0+255),b
  1538  000A6C  0EFF               	movlw	255
  1539  000A6E  204D               	addwfc	(??_powf+2)^0,w,c
  1540  000A70  6FA1               	movwf	(powf@k+1)& (0+255),b
  1541  000A72  0EFF               	movlw	255
  1542  000A74  204E               	addwfc	(??_powf+3)^0,w,c
  1543  000A76  6FA2               	movwf	(powf@k+2)& (0+255),b
  1544  000A78  0EFF               	movlw	255
  1545  000A7A  204F               	addwfc	(??_powf+4)^0,w,c
  1546  000A7C  6FA3               	movwf	(powf@k+3)& (0+255),b
  1547  000A7E  51A0               	movf	powf@k& (0+255),w,b
  1548  000A80  0817               	sublw	23
  1549  000A82  6E4B               	movwf	??_powf^0,c
  1550  000A84  C198  F04C         	movff	powf@iy,??_powf+1
  1551  000A88  C199  F04D         	movff	powf@iy+1,??_powf+2
  1552  000A8C  C19A  F04E         	movff	powf@iy+2,??_powf+3
  1553  000A90  C19B  F04F         	movff	powf@iy+3,??_powf+4
  1554  000A94                     u3295:
  1555  000A94  664B               	tstfsz	??_powf^0,c
  1556  000A96  EF4F  F005         	goto	u3296
  1557  000A9A  EF57  F005         	goto	u3297
  1558  000A9E                     u3296:
  1559  000A9E  344F               	rlcf	(??_powf+4)^0,w,c
  1560  000AA0  324F               	rrcf	(??_powf+4)^0,f,c
  1561  000AA2  324E               	rrcf	(??_powf+3)^0,f,c
  1562  000AA4  324D               	rrcf	(??_powf+2)^0,f,c
  1563  000AA6  324C               	rrcf	(??_powf+1)^0,f,c
  1564  000AA8  2E4B               	decfsz	??_powf^0,f,c
  1565  000AAA  EF4A  F005         	goto	u3295
  1566  000AAE                     u3297:
  1567  000AAE  C04C  F1AC         	movff	??_powf+1,powf@j
  1568  000AB2  C04D  F1AD         	movff	??_powf+2,powf@j+1
  1569  000AB6  C04E  F1AE         	movff	??_powf+3,powf@j+2
  1570  000ABA  C04F  F1AF         	movff	??_powf+4,powf@j+3
  1571  000ABE  0101               	movlb	1	; () banked
  1572  000AC0  51A0               	movf	powf@k& (0+255),w,b
  1573  000AC2  0817               	sublw	23
  1574  000AC4  6E4B               	movwf	??_powf^0,c
  1575  000AC6  C1AC  F04C         	movff	powf@j,??_powf+1
  1576  000ACA  C1AD  F04D         	movff	powf@j+1,??_powf+2
  1577  000ACE  C1AE  F04E         	movff	powf@j+2,??_powf+3
  1578  000AD2  C1AF  F04F         	movff	powf@j+3,??_powf+4
  1579  000AD6  2A4B               	incf	??_powf^0,f,c
  1580  000AD8  EF73  F005         	goto	u3300
  1581  000ADC                     u3305:
  1582  000ADC  90D8               	bcf	status,0,c
  1583  000ADE  364C               	rlcf	(??_powf+1)^0,f,c
  1584  000AE0  364D               	rlcf	(??_powf+2)^0,f,c
  1585  000AE2  364E               	rlcf	(??_powf+3)^0,f,c
  1586  000AE4  364F               	rlcf	(??_powf+4)^0,f,c
  1587  000AE6                     u3300:
  1588  000AE6  2E4B               	decfsz	??_powf^0,f,c
  1589  000AE8  EF6E  F005         	goto	u3305
  1590  000AEC  5198               	movf	powf@iy& (0+255),w,b
  1591  000AEE  184C               	xorwf	(??_powf+1)^0,w,c
  1592  000AF0  E10D               	bnz	u3311
  1593  000AF2  5199               	movf	(powf@iy+1)& (0+255),w,b
  1594  000AF4  184D               	xorwf	(??_powf+2)^0,w,c
  1595  000AF6  E10A               	bnz	u3311
  1596  000AF8  519A               	movf	(powf@iy+2)& (0+255),w,b
  1597  000AFA  184E               	xorwf	(??_powf+3)^0,w,c
  1598  000AFC  E107               	bnz	u3311
  1599  000AFE  519B               	movf	(powf@iy+3)& (0+255),w,b
  1600  000B00  184F               	xorwf	(??_powf+4)^0,w,c
  1601  000B02  A4D8               	btfss	status,2,c
  1602  000B04  EF86  F005         	goto	u3311
  1603  000B08  EF88  F005         	goto	u3310
  1604  000B0C                     u3311:
  1605  000B0C  EFA0  F005         	goto	l806
  1606  000B10                     u3310:
  1607  000B10                     
  1608                           ; BSR set to: 1
  1609  000B10  0E01               	movlw	1
  1610  000B12  15AC               	andwf	powf@j& (0+255),w,b
  1611  000B14  6E4B               	movwf	??_powf^0,c
  1612  000B16  0E00               	movlw	0
  1613  000B18  15AD               	andwf	(powf@j+1)& (0+255),w,b
  1614  000B1A  6E4C               	movwf	(??_powf+1)^0,c
  1615  000B1C  0E00               	movlw	0
  1616  000B1E  15AE               	andwf	(powf@j+2)& (0+255),w,b
  1617  000B20  6E4D               	movwf	(??_powf+2)^0,c
  1618  000B22  0E00               	movlw	0
  1619  000B24  15AF               	andwf	(powf@j+3)& (0+255),w,b
  1620  000B26  6E4E               	movwf	(??_powf+3)^0,c
  1621  000B28  504B               	movf	??_powf^0,w,c
  1622  000B2A  0802               	sublw	2
  1623  000B2C  6F50               	movwf	powf@yisint& (0+255),b
  1624  000B2E  0E00               	movlw	0
  1625  000B30  544C               	subfwb	(??_powf+1)^0,w,c
  1626  000B32  6F51               	movwf	(powf@yisint+1)& (0+255),b
  1627  000B34  0E00               	movlw	0
  1628  000B36  544D               	subfwb	(??_powf+2)^0,w,c
  1629  000B38  6F52               	movwf	(powf@yisint+2)& (0+255),b
  1630  000B3A  0E00               	movlw	0
  1631  000B3C  544E               	subfwb	(??_powf+3)^0,w,c
  1632  000B3E  6F53               	movwf	(powf@yisint+3)& (0+255),b
  1633  000B40                     l806:
  1634                           
  1635                           ; BSR set to: 1
  1636  000B40  0E80               	movlw	128
  1637  000B42  199A               	xorwf	(powf@iy+2)& (0+255),w,b
  1638  000B44  E109               	bnz	u3321
  1639  000B46  0E7F               	movlw	127
  1640  000B48  199B               	xorwf	(powf@iy+3)& (0+255),w,b
  1641  000B4A  1198               	iorwf	powf@iy& (0+255),w,b
  1642  000B4C  1199               	iorwf	(powf@iy+1)& (0+255),w,b
  1643  000B4E  A4D8               	btfss	status,2,c
  1644  000B50  EFAC  F005         	goto	u3321
  1645  000B54  EFAE  F005         	goto	u3320
  1646  000B58                     u3321:
  1647  000B58  EF1A  F006         	goto	l3028
  1648  000B5C                     u3320:
  1649  000B5C                     
  1650                           ; BSR set to: 1
  1651  000B5C  0E80               	movlw	128
  1652  000B5E  19AA               	xorwf	(powf@ix+2)& (0+255),w,b
  1653  000B60  E109               	bnz	u3331
  1654  000B62  0E3F               	movlw	63
  1655  000B64  19AB               	xorwf	(powf@ix+3)& (0+255),w,b
  1656  000B66  11A8               	iorwf	powf@ix& (0+255),w,b
  1657  000B68  11A9               	iorwf	(powf@ix+1)& (0+255),w,b
  1658  000B6A  A4D8               	btfss	status,2,c
  1659  000B6C  EFBA  F005         	goto	u3331
  1660  000B70  EFBC  F005         	goto	u3330
  1661  000B74                     u3331:
  1662  000B74  EFC7  F005         	goto	l3012
  1663  000B78                     u3330:
  1664  000B78                     
  1665                           ; BSR set to: 1
  1666  000B78  0E00               	movlw	0
  1667  000B7A  0100               	movlb	0	; () banked
  1668  000B7C  6F84               	movwf	?_powf& (0+255),b
  1669  000B7E  0E00               	movlw	0
  1670  000B80  6F85               	movwf	(?_powf+1)& (0+255),b
  1671  000B82  0E80               	movlw	128
  1672  000B84  6F86               	movwf	(?_powf+2)& (0+255),b
  1673  000B86  0E3F               	movlw	63
  1674  000B88  6F87               	movwf	(?_powf+3)& (0+255),b
  1675  000B8A  EFBB  F018         	goto	l801
  1676  000B8E                     l3012:
  1677                           
  1678                           ; BSR set to: 1
  1679  000B8E  BFAB               	btfsc	(powf@ix+3)& (0+255),7,b
  1680  000B90  EFD6  F005         	goto	u3341
  1681  000B94  05A8               	decf	powf@ix& (0+255),w,b
  1682  000B96  0E00               	movlw	0
  1683  000B98  59A9               	subwfb	(powf@ix+1)& (0+255),w,b
  1684  000B9A  0E80               	movlw	128
  1685  000B9C  59AA               	subwfb	(powf@ix+2)& (0+255),w,b
  1686  000B9E  0E3F               	movlw	63
  1687  000BA0  59AB               	subwfb	(powf@ix+3)& (0+255),w,b
  1688  000BA2  A0D8               	btfss	status,0,c
  1689  000BA4  EFD6  F005         	goto	u3341
  1690  000BA8  EFD8  F005         	goto	u3340
  1691  000BAC                     u3341:
  1692  000BAC  EFF4  F005         	goto	l3020
  1693  000BB0                     u3340:
  1694  000BB0                     
  1695                           ; BSR set to: 1
  1696  000BB0  BF87               	btfsc	(powf@hy+3)& (0+255),7,b
  1697  000BB2  EFDF  F005         	goto	u3350
  1698  000BB6  EFDD  F005         	goto	u3351
  1699  000BBA                     u3351:
  1700  000BBA  EFEA  F005         	goto	l816
  1701  000BBE                     u3350:
  1702  000BBE                     
  1703                           ; BSR set to: 1
  1704  000BBE  0E00               	movlw	0
  1705  000BC0  0100               	movlb	0	; () banked
  1706  000BC2  6F84               	movwf	?_powf& (0+255),b
  1707  000BC4  0E00               	movlw	0
  1708  000BC6  6F85               	movwf	(?_powf+1)& (0+255),b
  1709  000BC8  0E00               	movlw	0
  1710  000BCA  6F86               	movwf	(?_powf+2)& (0+255),b
  1711  000BCC  0E00               	movlw	0
  1712  000BCE  6F87               	movwf	(?_powf+3)& (0+255),b
  1713  000BD0  EFBB  F018         	goto	l801
  1714  000BD4                     l816:
  1715                           
  1716                           ; BSR set to: 1
  1717  000BD4  C088  F084         	movff	powf@y,?_powf
  1718  000BD8  C089  F085         	movff	powf@y+1,?_powf+1
  1719  000BDC  C08A  F086         	movff	powf@y+2,?_powf+2
  1720  000BE0  C08B  F087         	movff	powf@y+3,?_powf+3
  1721  000BE4  EFBB  F018         	goto	l801
  1722  000BE8                     l3020:
  1723                           
  1724                           ; BSR set to: 1
  1725  000BE8  BF87               	btfsc	(powf@hy+3)& (0+255),7,b
  1726  000BEA  EFFB  F005         	goto	u3360
  1727  000BEE  EFF9  F005         	goto	u3361
  1728  000BF2                     u3361:
  1729  000BF2  EF0F  F006         	goto	l3024
  1730  000BF6                     u3360:
  1731  000BF6                     
  1732                           ; BSR set to: 1
  1733  000BF6  C088  F001         	movff	powf@y,___flneg@f1
  1734  000BFA  C089  F002         	movff	powf@y+1,___flneg@f1+1
  1735  000BFE  C08A  F003         	movff	powf@y+2,___flneg@f1+2
  1736  000C02  C08B  F004         	movff	powf@y+3,___flneg@f1+3
  1737  000C06  EC4A  F026         	call	___flneg	;wreg free
  1738  000C0A  C001  F084         	movff	?___flneg,?_powf
  1739  000C0E  C002  F085         	movff	?___flneg+1,?_powf+1
  1740  000C12  C003  F086         	movff	?___flneg+2,?_powf+2
  1741  000C16  C004  F087         	movff	?___flneg+3,?_powf+3
  1742  000C1A  EFBB  F018         	goto	l801
  1743  000C1E                     l3024:
  1744                           
  1745                           ; BSR set to: 1
  1746  000C1E  0E00               	movlw	0
  1747  000C20  0100               	movlb	0	; () banked
  1748  000C22  6F84               	movwf	?_powf& (0+255),b
  1749  000C24  0E00               	movlw	0
  1750  000C26  6F85               	movwf	(?_powf+1)& (0+255),b
  1751  000C28  0E00               	movlw	0
  1752  000C2A  6F86               	movwf	(?_powf+2)& (0+255),b
  1753  000C2C  0E00               	movlw	0
  1754  000C2E  6F87               	movwf	(?_powf+3)& (0+255),b
  1755  000C30  EFBB  F018         	goto	l801
  1756  000C34                     l3028:
  1757                           
  1758                           ; BSR set to: 1
  1759  000C34  0E80               	movlw	128
  1760  000C36  199A               	xorwf	(powf@iy+2)& (0+255),w,b
  1761  000C38  E109               	bnz	u3371
  1762  000C3A  0E3F               	movlw	63
  1763  000C3C  199B               	xorwf	(powf@iy+3)& (0+255),w,b
  1764  000C3E  1198               	iorwf	powf@iy& (0+255),w,b
  1765  000C40  1199               	iorwf	(powf@iy+1)& (0+255),w,b
  1766  000C42  A4D8               	btfss	status,2,c
  1767  000C44  EF26  F006         	goto	u3371
  1768  000C48  EF28  F006         	goto	u3370
  1769  000C4C                     u3371:
  1770  000C4C  EF55  F006         	goto	l3034
  1771  000C50                     u3370:
  1772  000C50                     
  1773                           ; BSR set to: 1
  1774  000C50  BF87               	btfsc	(powf@hy+3)& (0+255),7,b
  1775  000C52  EF2F  F006         	goto	u3380
  1776  000C56  EF2D  F006         	goto	u3381
  1777  000C5A                     u3381:
  1778  000C5A  EF4B  F006         	goto	l826
  1779  000C5E                     u3380:
  1780  000C5E                     
  1781                           ; BSR set to: 1
  1782  000C5E  0E00               	movlw	0
  1783  000C60  6E32               	movwf	___fldiv@b^0,c
  1784  000C62  0E00               	movlw	0
  1785  000C64  6E33               	movwf	(___fldiv@b+1)^0,c
  1786  000C66  0E80               	movlw	128
  1787  000C68  6E34               	movwf	(___fldiv@b+2)^0,c
  1788  000C6A  0E3F               	movlw	63
  1789  000C6C  6E35               	movwf	(___fldiv@b+3)^0,c
  1790  000C6E  C084  F036         	movff	powf@x,___fldiv@a
  1791  000C72  C085  F037         	movff	powf@x+1,___fldiv@a+1
  1792  000C76  C086  F038         	movff	powf@x+2,___fldiv@a+2
  1793  000C7A  C087  F039         	movff	powf@x+3,___fldiv@a+3
  1794  000C7E  EC91  F01F         	call	___fldiv	;wreg free
  1795  000C82  C032  F084         	movff	?___fldiv,?_powf
  1796  000C86  C033  F085         	movff	?___fldiv+1,?_powf+1
  1797  000C8A  C034  F086         	movff	?___fldiv+2,?_powf+2
  1798  000C8E  C035  F087         	movff	?___fldiv+3,?_powf+3
  1799  000C92  EFBB  F018         	goto	l801
  1800  000C96                     l826:
  1801                           
  1802                           ; BSR set to: 1
  1803  000C96  C084  F084         	movff	powf@x,?_powf
  1804  000C9A  C085  F085         	movff	powf@x+1,?_powf+1
  1805  000C9E  C086  F086         	movff	powf@x+2,?_powf+2
  1806  000CA2  C087  F087         	movff	powf@x+3,?_powf+3
  1807  000CA6  EFBB  F018         	goto	l801
  1808  000CAA                     l3034:
  1809                           
  1810                           ; BSR set to: 1
  1811  000CAA  0E40               	movlw	64
  1812  000CAC  1987               	xorwf	(powf@hy+3)& (0+255),w,b
  1813  000CAE  1184               	iorwf	powf@hy& (0+255),w,b
  1814  000CB0  1185               	iorwf	(powf@hy+1)& (0+255),w,b
  1815  000CB2  1186               	iorwf	(powf@hy+2)& (0+255),w,b
  1816  000CB4  A4D8               	btfss	status,2,c
  1817  000CB6  EF5F  F006         	goto	u3391
  1818  000CBA  EF61  F006         	goto	u3390
  1819  000CBE                     u3391:
  1820  000CBE  EF7D  F006         	goto	l3040
  1821  000CC2                     u3390:
  1822  000CC2                     
  1823                           ; BSR set to: 1
  1824  000CC2  C084  F011         	movff	powf@x,___flmul@b
  1825  000CC6  C085  F012         	movff	powf@x+1,___flmul@b+1
  1826  000CCA  C086  F013         	movff	powf@x+2,___flmul@b+2
  1827  000CCE  C087  F014         	movff	powf@x+3,___flmul@b+3
  1828  000CD2  C084  F015         	movff	powf@x,___flmul@a
  1829  000CD6  C085  F016         	movff	powf@x+1,___flmul@a+1
  1830  000CDA  C086  F017         	movff	powf@x+2,___flmul@a+2
  1831  000CDE  C087  F018         	movff	powf@x+3,___flmul@a+3
  1832  000CE2  EC7C  F01D         	call	___flmul	;wreg free
  1833  000CE6  C011  F084         	movff	?___flmul,?_powf
  1834  000CEA  C012  F085         	movff	?___flmul+1,?_powf+1
  1835  000CEE  C013  F086         	movff	?___flmul+2,?_powf+2
  1836  000CF2  C014  F087         	movff	?___flmul+3,?_powf+3
  1837  000CF6  EFBB  F018         	goto	l801
  1838  000CFA                     l3040:
  1839                           
  1840                           ; BSR set to: 1
  1841  000CFA  0E3F               	movlw	63
  1842  000CFC  1987               	xorwf	(powf@hy+3)& (0+255),w,b
  1843  000CFE  1184               	iorwf	powf@hy& (0+255),w,b
  1844  000D00  1185               	iorwf	(powf@hy+1)& (0+255),w,b
  1845  000D02  1186               	iorwf	(powf@hy+2)& (0+255),w,b
  1846  000D04  A4D8               	btfss	status,2,c
  1847  000D06  EF87  F006         	goto	u3401
  1848  000D0A  EF89  F006         	goto	u3400
  1849  000D0E                     u3401:
  1850  000D0E  EFA4  F006         	goto	l3048
  1851  000D12                     u3400:
  1852  000D12                     
  1853                           ; BSR set to: 1
  1854  000D12  BF63               	btfsc	(powf@hx+3)& (0+255),7,b
  1855  000D14  EF8E  F006         	goto	u3411
  1856  000D18  EF90  F006         	goto	u3410
  1857  000D1C                     u3411:
  1858  000D1C  EFA4  F006         	goto	l3048
  1859  000D20                     u3410:
  1860  000D20                     
  1861                           ; BSR set to: 1
  1862  000D20  C084  F03E         	movff	powf@x,sqrtf@x
  1863  000D24  C085  F03F         	movff	powf@x+1,sqrtf@x+1
  1864  000D28  C086  F040         	movff	powf@x+2,sqrtf@x+2
  1865  000D2C  C087  F041         	movff	powf@x+3,sqrtf@x+3
  1866  000D30  ECBC  F018         	call	_sqrtf	;wreg free
  1867  000D34  C03E  F084         	movff	?_sqrtf,?_powf
  1868  000D38  C03F  F085         	movff	?_sqrtf+1,?_powf+1
  1869  000D3C  C040  F086         	movff	?_sqrtf+2,?_powf+2
  1870  000D40  C041  F087         	movff	?_sqrtf+3,?_powf+3
  1871  000D44  EFBB  F018         	goto	l801
  1872  000D48                     l3048:
  1873                           
  1874                           ; BSR set to: 1
  1875  000D48  C084  F001         	movff	powf@x,fabsf@x
  1876  000D4C  C085  F002         	movff	powf@x+1,fabsf@x+1
  1877  000D50  C086  F003         	movff	powf@x+2,fabsf@x+2
  1878  000D54  C087  F004         	movff	powf@x+3,fabsf@x+3
  1879  000D58  EC66  F026         	call	_fabsf	;wreg free
  1880  000D5C  C001  F170         	movff	?_fabsf,powf@ax
  1881  000D60  C002  F171         	movff	?_fabsf+1,powf@ax+1
  1882  000D64  C003  F172         	movff	?_fabsf+2,powf@ax+2
  1883  000D68  C004  F173         	movff	?_fabsf+3,powf@ax+3
  1884  000D6C  0E80               	movlw	128
  1885  000D6E  0101               	movlb	1	; () banked
  1886  000D70  19AA               	xorwf	(powf@ix+2)& (0+255),w,b
  1887  000D72  E10B               	bnz	u3420
  1888  000D74  0E7F               	movlw	127
  1889  000D76  19AB               	xorwf	(powf@ix+3)& (0+255),w,b
  1890  000D78  11A8               	iorwf	powf@ix& (0+255),w,b
  1891  000D7A  11A9               	iorwf	(powf@ix+1)& (0+255),w,b
  1892  000D7C  B4D8               	btfsc	status,2,c
  1893  000D7E  EFC3  F006         	goto	u3421
  1894  000D82  EFC5  F006         	goto	u3420
  1895  000D86                     u3421:
  1896  000D86  EFDE  F006         	goto	l834
  1897  000D8A                     u3420:
  1898  000D8A                     
  1899                           ; BSR set to: 1
  1900  000D8A  51A8               	movf	powf@ix& (0+255),w,b
  1901  000D8C  11A9               	iorwf	(powf@ix+1)& (0+255),w,b
  1902  000D8E  11AA               	iorwf	(powf@ix+2)& (0+255),w,b
  1903  000D90  11AB               	iorwf	(powf@ix+3)& (0+255),w,b
  1904  000D92  B4D8               	btfsc	status,2,c
  1905  000D94  EFCE  F006         	goto	u3431
  1906  000D98  EFD0  F006         	goto	u3430
  1907  000D9C                     u3431:
  1908  000D9C  EFDE  F006         	goto	l834
  1909  000DA0                     u3430:
  1910  000DA0                     
  1911                           ; BSR set to: 1
  1912  000DA0  0E80               	movlw	128
  1913  000DA2  19AA               	xorwf	(powf@ix+2)& (0+255),w,b
  1914  000DA4  E109               	bnz	u3441
  1915  000DA6  0E3F               	movlw	63
  1916  000DA8  19AB               	xorwf	(powf@ix+3)& (0+255),w,b
  1917  000DAA  11A8               	iorwf	powf@ix& (0+255),w,b
  1918  000DAC  11A9               	iorwf	(powf@ix+1)& (0+255),w,b
  1919  000DAE  A4D8               	btfss	status,2,c
  1920  000DB0  EFDC  F006         	goto	u3441
  1921  000DB4  EFDE  F006         	goto	u3440
  1922  000DB8                     u3441:
  1923  000DB8  EF9E  F007         	goto	l3076
  1924  000DBC                     u3440:
  1925  000DBC                     l834:
  1926                           
  1927                           ; BSR set to: 1
  1928  000DBC  C170  F1B4         	movff	powf@ax,powf@z
  1929  000DC0  C171  F1B5         	movff	powf@ax+1,powf@z+1
  1930  000DC4  C172  F1B6         	movff	powf@ax+2,powf@z+2
  1931  000DC8  C173  F1B7         	movff	powf@ax+3,powf@z+3
  1932  000DCC                     
  1933                           ; BSR set to: 1
  1934  000DCC  BF87               	btfsc	(powf@hy+3)& (0+255),7,b
  1935  000DCE  EFED  F006         	goto	u3450
  1936  000DD2  EFEB  F006         	goto	u3451
  1937  000DD6                     u3451:
  1938  000DD6  EF07  F007         	goto	l3060
  1939  000DDA                     u3450:
  1940  000DDA                     
  1941                           ; BSR set to: 1
  1942  000DDA  0E00               	movlw	0
  1943  000DDC  6E32               	movwf	___fldiv@b^0,c
  1944  000DDE  0E00               	movlw	0
  1945  000DE0  6E33               	movwf	(___fldiv@b+1)^0,c
  1946  000DE2  0E80               	movlw	128
  1947  000DE4  6E34               	movwf	(___fldiv@b+2)^0,c
  1948  000DE6  0E3F               	movlw	63
  1949  000DE8  6E35               	movwf	(___fldiv@b+3)^0,c
  1950  000DEA  C1B4  F036         	movff	powf@z,___fldiv@a
  1951  000DEE  C1B5  F037         	movff	powf@z+1,___fldiv@a+1
  1952  000DF2  C1B6  F038         	movff	powf@z+2,___fldiv@a+2
  1953  000DF6  C1B7  F039         	movff	powf@z+3,___fldiv@a+3
  1954  000DFA  EC91  F01F         	call	___fldiv	;wreg free
  1955  000DFE  C032  F1B4         	movff	?___fldiv,powf@z
  1956  000E02  C033  F1B5         	movff	?___fldiv+1,powf@z+1
  1957  000E06  C034  F1B6         	movff	?___fldiv+2,powf@z+2
  1958  000E0A  C035  F1B7         	movff	?___fldiv+3,powf@z+3
  1959  000E0E                     l3060:
  1960  000E0E  0101               	movlb	1	; () banked
  1961  000E10  BF63               	btfsc	(powf@hx+3)& (0+255),7,b
  1962  000E12  EF0F  F007         	goto	u3460
  1963  000E16  EF0D  F007         	goto	u3461
  1964  000E1A                     u3461:
  1965  000E1A  EF94  F007         	goto	l3072
  1966  000E1E                     u3460:
  1967  000E1E                     
  1968                           ; BSR set to: 1
  1969  000E1E  0E00               	movlw	0
  1970  000E20  25A8               	addwf	powf@ix& (0+255),w,b
  1971  000E22  6E4B               	movwf	??_powf^0,c
  1972  000E24  0E00               	movlw	0
  1973  000E26  21A9               	addwfc	(powf@ix+1)& (0+255),w,b
  1974  000E28  6E4C               	movwf	(??_powf+1)^0,c
  1975  000E2A  0E80               	movlw	128
  1976  000E2C  21AA               	addwfc	(powf@ix+2)& (0+255),w,b
  1977  000E2E  6E4D               	movwf	(??_powf+2)^0,c
  1978  000E30  0EC0               	movlw	192
  1979  000E32  21AB               	addwfc	(powf@ix+3)& (0+255),w,b
  1980  000E34  6E4E               	movwf	(??_powf+3)^0,c
  1981  000E36  5150               	movf	powf@yisint& (0+255),w,b
  1982  000E38  104B               	iorwf	??_powf^0,w,c
  1983  000E3A  6E4F               	movwf	(??_powf+4)^0,c
  1984  000E3C  5151               	movf	(powf@yisint+1)& (0+255),w,b
  1985  000E3E  104C               	iorwf	(??_powf+1)^0,w,c
  1986  000E40  6E50               	movwf	(??_powf+5)^0,c
  1987  000E42  5152               	movf	(powf@yisint+2)& (0+255),w,b
  1988  000E44  104D               	iorwf	(??_powf+2)^0,w,c
  1989  000E46  6E51               	movwf	(??_powf+6)^0,c
  1990  000E48  5153               	movf	(powf@yisint+3)& (0+255),w,b
  1991  000E4A  104E               	iorwf	(??_powf+3)^0,w,c
  1992  000E4C  6E52               	movwf	(??_powf+7)^0,c
  1993  000E4E  504F               	movf	(??_powf+4)^0,w,c
  1994  000E50  1050               	iorwf	(??_powf+5)^0,w,c
  1995  000E52  1051               	iorwf	(??_powf+6)^0,w,c
  1996  000E54  1052               	iorwf	(??_powf+7)^0,w,c
  1997  000E56  A4D8               	btfss	status,2,c
  1998  000E58  EF30  F007         	goto	u3471
  1999  000E5C  EF32  F007         	goto	u3470
  2000  000E60                     u3471:
  2001  000E60  EF77  F007         	goto	l3068
  2002  000E64                     u3470:
  2003  000E64                     
  2004                           ; BSR set to: 1
  2005  000E64  0E00               	movlw	0
  2006  000E66  0100               	movlb	0	; () banked
  2007  000E68  6F97               	movwf	(_errno+1)& (0+255),b
  2008  000E6A  0E21               	movlw	33
  2009  000E6C  6F96               	movwf	_errno& (0+255),b
  2010  000E6E                     
  2011                           ; BSR set to: 0
  2012  000E6E  C1B4  F02E         	movff	powf@z,___flsub@a
  2013  000E72  C1B5  F02F         	movff	powf@z+1,___flsub@a+1
  2014  000E76  C1B6  F030         	movff	powf@z+2,___flsub@a+2
  2015  000E7A  C1B7  F031         	movff	powf@z+3,___flsub@a+3
  2016  000E7E  C1B4  F02A         	movff	powf@z,___flsub@b
  2017  000E82  C1B5  F02B         	movff	powf@z+1,___flsub@b+1
  2018  000E86  C1B6  F02C         	movff	powf@z+2,___flsub@b+2
  2019  000E8A  C1B7  F02D         	movff	powf@z+3,___flsub@b+3
  2020  000E8E  EC27  F026         	call	___flsub	;wreg free
  2021  000E92  C02A  F032         	movff	?___flsub,___fldiv@b
  2022  000E96  C02B  F033         	movff	?___flsub+1,___fldiv@b+1
  2023  000E9A  C02C  F034         	movff	?___flsub+2,___fldiv@b+2
  2024  000E9E  C02D  F035         	movff	?___flsub+3,___fldiv@b+3
  2025  000EA2  C1B4  F02E         	movff	powf@z,___flsub@a
  2026  000EA6  C1B5  F02F         	movff	powf@z+1,___flsub@a+1
  2027  000EAA  C1B6  F030         	movff	powf@z+2,___flsub@a+2
  2028  000EAE  C1B7  F031         	movff	powf@z+3,___flsub@a+3
  2029  000EB2  C1B4  F02A         	movff	powf@z,___flsub@b
  2030  000EB6  C1B5  F02B         	movff	powf@z+1,___flsub@b+1
  2031  000EBA  C1B6  F02C         	movff	powf@z+2,___flsub@b+2
  2032  000EBE  C1B7  F02D         	movff	powf@z+3,___flsub@b+3
  2033  000EC2  EC27  F026         	call	___flsub	;wreg free
  2034  000EC6  C02A  F036         	movff	?___flsub,___fldiv@a
  2035  000ECA  C02B  F037         	movff	?___flsub+1,___fldiv@a+1
  2036  000ECE  C02C  F038         	movff	?___flsub+2,___fldiv@a+2
  2037  000ED2  C02D  F039         	movff	?___flsub+3,___fldiv@a+3
  2038  000ED6  EC91  F01F         	call	___fldiv	;wreg free
  2039  000EDA  C032  F1B4         	movff	?___fldiv,powf@z
  2040  000EDE  C033  F1B5         	movff	?___fldiv+1,powf@z+1
  2041  000EE2  C034  F1B6         	movff	?___fldiv+2,powf@z+2
  2042  000EE6  C035  F1B7         	movff	?___fldiv+3,powf@z+3
  2043  000EEA  EF94  F007         	goto	l3072
  2044  000EEE                     l3068:
  2045                           
  2046                           ; BSR set to: 1
  2047  000EEE  0550               	decf	powf@yisint& (0+255),w,b
  2048  000EF0  1151               	iorwf	(powf@yisint+1)& (0+255),w,b
  2049  000EF2  1152               	iorwf	(powf@yisint+2)& (0+255),w,b
  2050  000EF4  1153               	iorwf	(powf@yisint+3)& (0+255),w,b
  2051  000EF6  A4D8               	btfss	status,2,c
  2052  000EF8  EF80  F007         	goto	u3481
  2053  000EFC  EF82  F007         	goto	u3480
  2054  000F00                     u3481:
  2055  000F00  EF94  F007         	goto	l3072
  2056  000F04                     u3480:
  2057  000F04                     
  2058                           ; BSR set to: 1
  2059  000F04  C1B4  F001         	movff	powf@z,___flneg@f1
  2060  000F08  C1B5  F002         	movff	powf@z+1,___flneg@f1+1
  2061  000F0C  C1B6  F003         	movff	powf@z+2,___flneg@f1+2
  2062  000F10  C1B7  F004         	movff	powf@z+3,___flneg@f1+3
  2063  000F14  EC4A  F026         	call	___flneg	;wreg free
  2064  000F18  C001  F1B4         	movff	?___flneg,powf@z
  2065  000F1C  C002  F1B5         	movff	?___flneg+1,powf@z+1
  2066  000F20  C003  F1B6         	movff	?___flneg+2,powf@z+2
  2067  000F24  C004  F1B7         	movff	?___flneg+3,powf@z+3
  2068  000F28                     l3072:
  2069  000F28  C1B4  F084         	movff	powf@z,?_powf
  2070  000F2C  C1B5  F085         	movff	powf@z+1,?_powf+1
  2071  000F30  C1B6  F086         	movff	powf@z+2,?_powf+2
  2072  000F34  C1B7  F087         	movff	powf@z+3,?_powf+3
  2073  000F38  EFBB  F018         	goto	l801
  2074  000F3C                     l3076:
  2075                           
  2076                           ; BSR set to: 1
  2077  000F3C  0E00               	movlw	0
  2078  000F3E  6F88               	movwf	powf@sn& (0+255),b
  2079  000F40  0E00               	movlw	0
  2080  000F42  6F89               	movwf	(powf@sn+1)& (0+255),b
  2081  000F44  0E80               	movlw	128
  2082  000F46  6F8A               	movwf	(powf@sn+2)& (0+255),b
  2083  000F48  0E3F               	movlw	63
  2084  000F4A  6F8B               	movwf	(powf@sn+3)& (0+255),b
  2085  000F4C                     
  2086                           ; BSR set to: 1
  2087  000F4C  BF63               	btfsc	(powf@hx+3)& (0+255),7,b
  2088  000F4E  EFAD  F007         	goto	u3490
  2089  000F52  EFAB  F007         	goto	u3491
  2090  000F56                     u3491:
  2091  000F56  EF10  F008         	goto	l3092
  2092  000F5A                     u3490:
  2093  000F5A                     
  2094                           ; BSR set to: 1
  2095  000F5A  5150               	movf	powf@yisint& (0+255),w,b
  2096  000F5C  1151               	iorwf	(powf@yisint+1)& (0+255),w,b
  2097  000F5E  1152               	iorwf	(powf@yisint+2)& (0+255),w,b
  2098  000F60  1153               	iorwf	(powf@yisint+3)& (0+255),w,b
  2099  000F62  A4D8               	btfss	status,2,c
  2100  000F64  EFB6  F007         	goto	u3501
  2101  000F68  EFB8  F007         	goto	u3500
  2102  000F6C                     u3501:
  2103  000F6C  EFFD  F007         	goto	l3088
  2104  000F70                     u3500:
  2105  000F70                     
  2106                           ; BSR set to: 1
  2107  000F70  0E00               	movlw	0
  2108  000F72  0100               	movlb	0	; () banked
  2109  000F74  6F97               	movwf	(_errno+1)& (0+255),b
  2110  000F76  0E21               	movlw	33
  2111  000F78  6F96               	movwf	_errno& (0+255),b
  2112  000F7A                     
  2113                           ; BSR set to: 0
  2114  000F7A  C084  F02E         	movff	powf@x,___flsub@a
  2115  000F7E  C085  F02F         	movff	powf@x+1,___flsub@a+1
  2116  000F82  C086  F030         	movff	powf@x+2,___flsub@a+2
  2117  000F86  C087  F031         	movff	powf@x+3,___flsub@a+3
  2118  000F8A  C084  F02A         	movff	powf@x,___flsub@b
  2119  000F8E  C085  F02B         	movff	powf@x+1,___flsub@b+1
  2120  000F92  C086  F02C         	movff	powf@x+2,___flsub@b+2
  2121  000F96  C087  F02D         	movff	powf@x+3,___flsub@b+3
  2122  000F9A  EC27  F026         	call	___flsub	;wreg free
  2123  000F9E  C02A  F032         	movff	?___flsub,___fldiv@b
  2124  000FA2  C02B  F033         	movff	?___flsub+1,___fldiv@b+1
  2125  000FA6  C02C  F034         	movff	?___flsub+2,___fldiv@b+2
  2126  000FAA  C02D  F035         	movff	?___flsub+3,___fldiv@b+3
  2127  000FAE  C084  F02E         	movff	powf@x,___flsub@a
  2128  000FB2  C085  F02F         	movff	powf@x+1,___flsub@a+1
  2129  000FB6  C086  F030         	movff	powf@x+2,___flsub@a+2
  2130  000FBA  C087  F031         	movff	powf@x+3,___flsub@a+3
  2131  000FBE  C084  F02A         	movff	powf@x,___flsub@b
  2132  000FC2  C085  F02B         	movff	powf@x+1,___flsub@b+1
  2133  000FC6  C086  F02C         	movff	powf@x+2,___flsub@b+2
  2134  000FCA  C087  F02D         	movff	powf@x+3,___flsub@b+3
  2135  000FCE  EC27  F026         	call	___flsub	;wreg free
  2136  000FD2  C02A  F036         	movff	?___flsub,___fldiv@a
  2137  000FD6  C02B  F037         	movff	?___flsub+1,___fldiv@a+1
  2138  000FDA  C02C  F038         	movff	?___flsub+2,___fldiv@a+2
  2139  000FDE  C02D  F039         	movff	?___flsub+3,___fldiv@a+3
  2140  000FE2  EC91  F01F         	call	___fldiv	;wreg free
  2141  000FE6  C032  F084         	movff	?___fldiv,?_powf
  2142  000FEA  C033  F085         	movff	?___fldiv+1,?_powf+1
  2143  000FEE  C034  F086         	movff	?___fldiv+2,?_powf+2
  2144  000FF2  C035  F087         	movff	?___fldiv+3,?_powf+3
  2145  000FF6  EFBB  F018         	goto	l801
  2146  000FFA                     l3088:
  2147                           
  2148                           ; BSR set to: 1
  2149  000FFA  0550               	decf	powf@yisint& (0+255),w,b
  2150  000FFC  1151               	iorwf	(powf@yisint+1)& (0+255),w,b
  2151  000FFE  1152               	iorwf	(powf@yisint+2)& (0+255),w,b
  2152  001000  1153               	iorwf	(powf@yisint+3)& (0+255),w,b
  2153  001002  A4D8               	btfss	status,2,c
  2154  001004  EF06  F008         	goto	u3511
  2155  001008  EF08  F008         	goto	u3510
  2156  00100C                     u3511:
  2157  00100C  EF10  F008         	goto	l3092
  2158  001010                     u3510:
  2159  001010                     
  2160                           ; BSR set to: 1
  2161  001010  0E00               	movlw	0
  2162  001012  6F88               	movwf	powf@sn& (0+255),b
  2163  001014  0E00               	movlw	0
  2164  001016  6F89               	movwf	(powf@sn+1)& (0+255),b
  2165  001018  0E80               	movlw	128
  2166  00101A  6F8A               	movwf	(powf@sn+2)& (0+255),b
  2167  00101C  0EBF               	movlw	191
  2168  00101E  6F8B               	movwf	(powf@sn+3)& (0+255),b
  2169  001020                     l3092:
  2170                           
  2171                           ; BSR set to: 1
  2172  001020  BF9B               	btfsc	(powf@iy+3)& (0+255),7,b
  2173  001022  EF1F  F008         	goto	u3521
  2174  001026  0598               	decf	powf@iy& (0+255),w,b
  2175  001028  0E00               	movlw	0
  2176  00102A  5999               	subwfb	(powf@iy+1)& (0+255),w,b
  2177  00102C  0E00               	movlw	0
  2178  00102E  599A               	subwfb	(powf@iy+2)& (0+255),w,b
  2179  001030  0E4D               	movlw	77
  2180  001032  599B               	subwfb	(powf@iy+3)& (0+255),w,b
  2181  001034  A0D8               	btfss	status,0,c
  2182  001036  EF1F  F008         	goto	u3521
  2183  00103A  EF21  F008         	goto	u3520
  2184  00103E                     u3521:
  2185  00103E  EFA6  F00A         	goto	l3140
  2186  001042                     u3520:
  2187  001042                     
  2188                           ; BSR set to: 1
  2189  001042  BFAB               	btfsc	(powf@ix+3)& (0+255),7,b
  2190  001044  EF33  F008         	goto	u3530
  2191  001048  0EF8               	movlw	248
  2192  00104A  5DA8               	subwf	powf@ix& (0+255),w,b
  2193  00104C  0EFF               	movlw	255
  2194  00104E  59A9               	subwfb	(powf@ix+1)& (0+255),w,b
  2195  001050  0E7F               	movlw	127
  2196  001052  59AA               	subwfb	(powf@ix+2)& (0+255),w,b
  2197  001054  0E3F               	movlw	63
  2198  001056  59AB               	subwfb	(powf@ix+3)& (0+255),w,b
  2199  001058  B0D8               	btfsc	status,0,c
  2200  00105A  EF31  F008         	goto	u3531
  2201  00105E  EF33  F008         	goto	u3530
  2202  001062                     u3531:
  2203  001062  EFA6  F008         	goto	l3104
  2204  001066                     u3530:
  2205  001066                     
  2206                           ; BSR set to: 1
  2207  001066  BF87               	btfsc	(powf@hy+3)& (0+255),7,b
  2208  001068  EF38  F008         	goto	u3541
  2209  00106C  EF3A  F008         	goto	u3540
  2210  001070                     u3541:
  2211  001070  EF70  F008         	goto	l3100
  2212  001074                     u3540:
  2213  001074                     
  2214                           ; BSR set to: 1
  2215  001074  0E60               	movlw	96
  2216  001076  6E15               	movwf	___flmul@a^0,c
  2217  001078  0E42               	movlw	66
  2218  00107A  6E16               	movwf	(___flmul@a+1)^0,c
  2219  00107C  0EA2               	movlw	162
  2220  00107E  6E17               	movwf	(___flmul@a+2)^0,c
  2221  001080  0E0D               	movlw	13
  2222  001082  6E18               	movwf	(___flmul@a+3)^0,c
  2223  001084  C188  F011         	movff	powf@sn,___flmul@b
  2224  001088  C189  F012         	movff	powf@sn+1,___flmul@b+1
  2225  00108C  C18A  F013         	movff	powf@sn+2,___flmul@b+2
  2226  001090  C18B  F014         	movff	powf@sn+3,___flmul@b+3
  2227  001094  EC7C  F01D         	call	___flmul	;wreg free
  2228  001098  C011  F1A4         	movff	?___flmul,_powf$843
  2229  00109C  C012  F1A5         	movff	?___flmul+1,_powf$843+1
  2230  0010A0  C013  F1A6         	movff	?___flmul+2,_powf$843+2
  2231  0010A4  C014  F1A7         	movff	?___flmul+3,_powf$843+3
  2232  0010A8  C1A4  F011         	movff	_powf$843,___flmul@b
  2233  0010AC  C1A5  F012         	movff	_powf$843+1,___flmul@b+1
  2234  0010B0  C1A6  F013         	movff	_powf$843+2,___flmul@b+2
  2235  0010B4  C1A7  F014         	movff	_powf$843+3,___flmul@b+3
  2236  0010B8  0E60               	movlw	96
  2237  0010BA  6E15               	movwf	___flmul@a^0,c
  2238  0010BC  0E42               	movlw	66
  2239  0010BE  6E16               	movwf	(___flmul@a+1)^0,c
  2240  0010C0  0EA2               	movlw	162
  2241  0010C2  6E17               	movwf	(___flmul@a+2)^0,c
  2242  0010C4  0E0D               	movlw	13
  2243  0010C6  6E18               	movwf	(___flmul@a+3)^0,c
  2244  0010C8  EC7C  F01D         	call	___flmul	;wreg free
  2245  0010CC  C011  F084         	movff	?___flmul,?_powf
  2246  0010D0  C012  F085         	movff	?___flmul+1,?_powf+1
  2247  0010D4  C013  F086         	movff	?___flmul+2,?_powf+2
  2248  0010D8  C014  F087         	movff	?___flmul+3,?_powf+3
  2249  0010DC  EFBB  F018         	goto	l801
  2250  0010E0                     l3100:
  2251                           
  2252                           ; BSR set to: 1
  2253  0010E0  0ECA               	movlw	202
  2254  0010E2  6E15               	movwf	___flmul@a^0,c
  2255  0010E4  0EF2               	movlw	242
  2256  0010E6  6E16               	movwf	(___flmul@a+1)^0,c
  2257  0010E8  0E49               	movlw	73
  2258  0010EA  6E17               	movwf	(___flmul@a+2)^0,c
  2259  0010EC  0E71               	movlw	113
  2260  0010EE  6E18               	movwf	(___flmul@a+3)^0,c
  2261  0010F0  C188  F011         	movff	powf@sn,___flmul@b
  2262  0010F4  C189  F012         	movff	powf@sn+1,___flmul@b+1
  2263  0010F8  C18A  F013         	movff	powf@sn+2,___flmul@b+2
  2264  0010FC  C18B  F014         	movff	powf@sn+3,___flmul@b+3
  2265  001100  EC7C  F01D         	call	___flmul	;wreg free
  2266  001104  C011  F1A4         	movff	?___flmul,_powf$843
  2267  001108  C012  F1A5         	movff	?___flmul+1,_powf$843+1
  2268  00110C  C013  F1A6         	movff	?___flmul+2,_powf$843+2
  2269  001110  C014  F1A7         	movff	?___flmul+3,_powf$843+3
  2270  001114  C1A4  F011         	movff	_powf$843,___flmul@b
  2271  001118  C1A5  F012         	movff	_powf$843+1,___flmul@b+1
  2272  00111C  C1A6  F013         	movff	_powf$843+2,___flmul@b+2
  2273  001120  C1A7  F014         	movff	_powf$843+3,___flmul@b+3
  2274  001124  0ECA               	movlw	202
  2275  001126  6E15               	movwf	___flmul@a^0,c
  2276  001128  0EF2               	movlw	242
  2277  00112A  6E16               	movwf	(___flmul@a+1)^0,c
  2278  00112C  0E49               	movlw	73
  2279  00112E  6E17               	movwf	(___flmul@a+2)^0,c
  2280  001130  0E71               	movlw	113
  2281  001132  6E18               	movwf	(___flmul@a+3)^0,c
  2282  001134  EC7C  F01D         	call	___flmul	;wreg free
  2283  001138  C011  F084         	movff	?___flmul,?_powf
  2284  00113C  C012  F085         	movff	?___flmul+1,?_powf+1
  2285  001140  C013  F086         	movff	?___flmul+2,?_powf+2
  2286  001144  C014  F087         	movff	?___flmul+3,?_powf+3
  2287  001148  EFBB  F018         	goto	l801
  2288  00114C                     l3104:
  2289                           
  2290                           ; BSR set to: 1
  2291  00114C  BFAB               	btfsc	(powf@ix+3)& (0+255),7,b
  2292  00114E  EFB6  F008         	goto	u3551
  2293  001152  0E08               	movlw	8
  2294  001154  5DA8               	subwf	powf@ix& (0+255),w,b
  2295  001156  0E00               	movlw	0
  2296  001158  59A9               	subwfb	(powf@ix+1)& (0+255),w,b
  2297  00115A  0E80               	movlw	128
  2298  00115C  59AA               	subwfb	(powf@ix+2)& (0+255),w,b
  2299  00115E  0E3F               	movlw	63
  2300  001160  59AB               	subwfb	(powf@ix+3)& (0+255),w,b
  2301  001162  A0D8               	btfss	status,0,c
  2302  001164  EFB6  F008         	goto	u3551
  2303  001168  EFB8  F008         	goto	u3550
  2304  00116C                     u3551:
  2305  00116C  EF33  F009         	goto	l3114
  2306  001170                     u3550:
  2307  001170                     
  2308                           ; BSR set to: 1
  2309  001170  BF87               	btfsc	(powf@hy+3)& (0+255),7,b
  2310  001172  EFC7  F008         	goto	u3560
  2311  001176  5187               	movf	(powf@hy+3)& (0+255),w,b
  2312  001178  1186               	iorwf	(powf@hy+2)& (0+255),w,b
  2313  00117A  1185               	iorwf	(powf@hy+1)& (0+255),w,b
  2314  00117C  E106               	bnz	u3561
  2315  00117E  0584               	decf	powf@hy& (0+255),w,b
  2316  001180  B0D8               	btfsc	status,0,c
  2317  001182  EFC5  F008         	goto	u3561
  2318  001186  EFC7  F008         	goto	u3560
  2319  00118A                     u3561:
  2320  00118A  EFFD  F008         	goto	l3110
  2321  00118E                     u3560:
  2322  00118E                     
  2323                           ; BSR set to: 1
  2324  00118E  0E60               	movlw	96
  2325  001190  6E15               	movwf	___flmul@a^0,c
  2326  001192  0E42               	movlw	66
  2327  001194  6E16               	movwf	(___flmul@a+1)^0,c
  2328  001196  0EA2               	movlw	162
  2329  001198  6E17               	movwf	(___flmul@a+2)^0,c
  2330  00119A  0E0D               	movlw	13
  2331  00119C  6E18               	movwf	(___flmul@a+3)^0,c
  2332  00119E  C188  F011         	movff	powf@sn,___flmul@b
  2333  0011A2  C189  F012         	movff	powf@sn+1,___flmul@b+1
  2334  0011A6  C18A  F013         	movff	powf@sn+2,___flmul@b+2
  2335  0011AA  C18B  F014         	movff	powf@sn+3,___flmul@b+3
  2336  0011AE  EC7C  F01D         	call	___flmul	;wreg free
  2337  0011B2  C011  F1A4         	movff	?___flmul,_powf$843
  2338  0011B6  C012  F1A5         	movff	?___flmul+1,_powf$843+1
  2339  0011BA  C013  F1A6         	movff	?___flmul+2,_powf$843+2
  2340  0011BE  C014  F1A7         	movff	?___flmul+3,_powf$843+3
  2341  0011C2  C1A4  F011         	movff	_powf$843,___flmul@b
  2342  0011C6  C1A5  F012         	movff	_powf$843+1,___flmul@b+1
  2343  0011CA  C1A6  F013         	movff	_powf$843+2,___flmul@b+2
  2344  0011CE  C1A7  F014         	movff	_powf$843+3,___flmul@b+3
  2345  0011D2  0E60               	movlw	96
  2346  0011D4  6E15               	movwf	___flmul@a^0,c
  2347  0011D6  0E42               	movlw	66
  2348  0011D8  6E16               	movwf	(___flmul@a+1)^0,c
  2349  0011DA  0EA2               	movlw	162
  2350  0011DC  6E17               	movwf	(___flmul@a+2)^0,c
  2351  0011DE  0E0D               	movlw	13
  2352  0011E0  6E18               	movwf	(___flmul@a+3)^0,c
  2353  0011E2  EC7C  F01D         	call	___flmul	;wreg free
  2354  0011E6  C011  F084         	movff	?___flmul,?_powf
  2355  0011EA  C012  F085         	movff	?___flmul+1,?_powf+1
  2356  0011EE  C013  F086         	movff	?___flmul+2,?_powf+2
  2357  0011F2  C014  F087         	movff	?___flmul+3,?_powf+3
  2358  0011F6  EFBB  F018         	goto	l801
  2359  0011FA                     l3110:
  2360                           
  2361                           ; BSR set to: 1
  2362  0011FA  0ECA               	movlw	202
  2363  0011FC  6E15               	movwf	___flmul@a^0,c
  2364  0011FE  0EF2               	movlw	242
  2365  001200  6E16               	movwf	(___flmul@a+1)^0,c
  2366  001202  0E49               	movlw	73
  2367  001204  6E17               	movwf	(___flmul@a+2)^0,c
  2368  001206  0E71               	movlw	113
  2369  001208  6E18               	movwf	(___flmul@a+3)^0,c
  2370  00120A  C188  F011         	movff	powf@sn,___flmul@b
  2371  00120E  C189  F012         	movff	powf@sn+1,___flmul@b+1
  2372  001212  C18A  F013         	movff	powf@sn+2,___flmul@b+2
  2373  001216  C18B  F014         	movff	powf@sn+3,___flmul@b+3
  2374  00121A  EC7C  F01D         	call	___flmul	;wreg free
  2375  00121E  C011  F1A4         	movff	?___flmul,_powf$843
  2376  001222  C012  F1A5         	movff	?___flmul+1,_powf$843+1
  2377  001226  C013  F1A6         	movff	?___flmul+2,_powf$843+2
  2378  00122A  C014  F1A7         	movff	?___flmul+3,_powf$843+3
  2379  00122E  C1A4  F011         	movff	_powf$843,___flmul@b
  2380  001232  C1A5  F012         	movff	_powf$843+1,___flmul@b+1
  2381  001236  C1A6  F013         	movff	_powf$843+2,___flmul@b+2
  2382  00123A  C1A7  F014         	movff	_powf$843+3,___flmul@b+3
  2383  00123E  0ECA               	movlw	202
  2384  001240  6E15               	movwf	___flmul@a^0,c
  2385  001242  0EF2               	movlw	242
  2386  001244  6E16               	movwf	(___flmul@a+1)^0,c
  2387  001246  0E49               	movlw	73
  2388  001248  6E17               	movwf	(___flmul@a+2)^0,c
  2389  00124A  0E71               	movlw	113
  2390  00124C  6E18               	movwf	(___flmul@a+3)^0,c
  2391  00124E  EC7C  F01D         	call	___flmul	;wreg free
  2392  001252  C011  F084         	movff	?___flmul,?_powf
  2393  001256  C012  F085         	movff	?___flmul+1,?_powf+1
  2394  00125A  C013  F086         	movff	?___flmul+2,?_powf+2
  2395  00125E  C014  F087         	movff	?___flmul+3,?_powf+3
  2396  001262  EFBB  F018         	goto	l801
  2397  001266                     l3114:
  2398                           
  2399                           ; BSR set to: 1
  2400  001266  C170  F001         	movff	powf@ax,___fladd@b
  2401  00126A  C171  F002         	movff	powf@ax+1,___fladd@b+1
  2402  00126E  C172  F003         	movff	powf@ax+2,___fladd@b+2
  2403  001272  C173  F004         	movff	powf@ax+3,___fladd@b+3
  2404  001276  0E00               	movlw	0
  2405  001278  6E05               	movwf	___fladd@a^0,c
  2406  00127A  0E00               	movlw	0
  2407  00127C  6E06               	movwf	(___fladd@a+1)^0,c
  2408  00127E  0E80               	movlw	128
  2409  001280  6E07               	movwf	(___fladd@a+2)^0,c
  2410  001282  0EBF               	movlw	191
  2411  001284  6E08               	movwf	(___fladd@a+3)^0,c
  2412  001286  EC1C  F01B         	call	___fladd	;wreg free
  2413  00128A  C001  F1B0         	movff	?___fladd,powf@t
  2414  00128E  C002  F1B1         	movff	?___fladd+1,powf@t+1
  2415  001292  C003  F1B2         	movff	?___fladd+2,powf@t+2
  2416  001296  C004  F1B3         	movff	?___fladd+3,powf@t+3
  2417  00129A  0E00               	movlw	0
  2418  00129C  6E15               	movwf	___flmul@a^0,c
  2419  00129E  0E00               	movlw	0
  2420  0012A0  6E16               	movwf	(___flmul@a+1)^0,c
  2421  0012A2  0E80               	movlw	128
  2422  0012A4  6E17               	movwf	(___flmul@a+2)^0,c
  2423  0012A6  0E3E               	movlw	62
  2424  0012A8  6E18               	movwf	(___flmul@a+3)^0,c
  2425  0012AA  C1B0  F011         	movff	powf@t,___flmul@b
  2426  0012AE  C1B1  F012         	movff	powf@t+1,___flmul@b+1
  2427  0012B2  C1B2  F013         	movff	powf@t+2,___flmul@b+2
  2428  0012B6  C1B3  F014         	movff	powf@t+3,___flmul@b+3
  2429  0012BA  EC7C  F01D         	call	___flmul	;wreg free
  2430  0012BE  C011  F02E         	movff	?___flmul,___flsub@a
  2431  0012C2  C012  F02F         	movff	?___flmul+1,___flsub@a+1
  2432  0012C6  C013  F030         	movff	?___flmul+2,___flsub@a+2
  2433  0012CA  C014  F031         	movff	?___flmul+3,___flsub@a+3
  2434  0012CE  0EAB               	movlw	171
  2435  0012D0  6E2A               	movwf	___flsub@b^0,c
  2436  0012D2  0EAA               	movlw	170
  2437  0012D4  6E2B               	movwf	(___flsub@b+1)^0,c
  2438  0012D6  0EAA               	movlw	170
  2439  0012D8  6E2C               	movwf	(___flsub@b+2)^0,c
  2440  0012DA  0E3E               	movlw	62
  2441  0012DC  6E2D               	movwf	(___flsub@b+3)^0,c
  2442  0012DE  EC27  F026         	call	___flsub	;wreg free
  2443  0012E2  C02A  F1A4         	movff	?___flsub,_powf$843
  2444  0012E6  C02B  F1A5         	movff	?___flsub+1,_powf$843+1
  2445  0012EA  C02C  F1A6         	movff	?___flsub+2,_powf$843+2
  2446  0012EE  C02D  F1A7         	movff	?___flsub+3,_powf$843+3
  2447  0012F2  C1B0  F015         	movff	powf@t,___flmul@a
  2448  0012F6  C1B1  F016         	movff	powf@t+1,___flmul@a+1
  2449  0012FA  C1B2  F017         	movff	powf@t+2,___flmul@a+2
  2450  0012FE  C1B3  F018         	movff	powf@t+3,___flmul@a+3
  2451  001302  C1B0  F011         	movff	powf@t,___flmul@b
  2452  001306  C1B1  F012         	movff	powf@t+1,___flmul@b+1
  2453  00130A  C1B2  F013         	movff	powf@t+2,___flmul@b+2
  2454  00130E  C1B3  F014         	movff	powf@t+3,___flmul@b+3
  2455  001312  EC7C  F01D         	call	___flmul	;wreg free
  2456  001316  C011  F154         	movff	?___flmul,_powf$844
  2457  00131A  C012  F155         	movff	?___flmul+1,_powf$844+1
  2458  00131E  C013  F156         	movff	?___flmul+2,_powf$844+2
  2459  001322  C014  F157         	movff	?___flmul+3,_powf$844+3
  2460  001326  C1B0  F015         	movff	powf@t,___flmul@a
  2461  00132A  C1B1  F016         	movff	powf@t+1,___flmul@a+1
  2462  00132E  C1B2  F017         	movff	powf@t+2,___flmul@a+2
  2463  001332  C1B3  F018         	movff	powf@t+3,___flmul@a+3
  2464  001336  C1A4  F011         	movff	_powf$843,___flmul@b
  2465  00133A  C1A5  F012         	movff	_powf$843+1,___flmul@b+1
  2466  00133E  C1A6  F013         	movff	_powf$843+2,___flmul@b+2
  2467  001342  C1A7  F014         	movff	_powf$843+3,___flmul@b+3
  2468  001346  EC7C  F01D         	call	___flmul	;wreg free
  2469  00134A  C011  F02E         	movff	?___flmul,___flsub@a
  2470  00134E  C012  F02F         	movff	?___flmul+1,___flsub@a+1
  2471  001352  C013  F030         	movff	?___flmul+2,___flsub@a+2
  2472  001356  C014  F031         	movff	?___flmul+3,___flsub@a+3
  2473  00135A  0E00               	movlw	0
  2474  00135C  6E2A               	movwf	___flsub@b^0,c
  2475  00135E  0E00               	movlw	0
  2476  001360  6E2B               	movwf	(___flsub@b+1)^0,c
  2477  001362  0E00               	movlw	0
  2478  001364  6E2C               	movwf	(___flsub@b+2)^0,c
  2479  001366  0E3F               	movlw	63
  2480  001368  6E2D               	movwf	(___flsub@b+3)^0,c
  2481  00136A  EC27  F026         	call	___flsub	;wreg free
  2482  00136E  C02A  F148         	movff	?___flsub,_powf$845
  2483  001372  C02B  F149         	movff	?___flsub+1,_powf$845+1
  2484  001376  C02C  F14A         	movff	?___flsub+2,_powf$845+2
  2485  00137A  C02D  F14B         	movff	?___flsub+3,_powf$845+3
  2486  00137E  C154  F011         	movff	_powf$844,___flmul@b
  2487  001382  C155  F012         	movff	_powf$844+1,___flmul@b+1
  2488  001386  C156  F013         	movff	_powf$844+2,___flmul@b+2
  2489  00138A  C157  F014         	movff	_powf$844+3,___flmul@b+3
  2490  00138E  C148  F015         	movff	_powf$845,___flmul@a
  2491  001392  C149  F016         	movff	_powf$845+1,___flmul@a+1
  2492  001396  C14A  F017         	movff	_powf$845+2,___flmul@a+2
  2493  00139A  C14B  F018         	movff	_powf$845+3,___flmul@a+3
  2494  00139E  EC7C  F01D         	call	___flmul	;wreg free
  2495  0013A2  C011  F144         	movff	?___flmul,powf@w
  2496  0013A6  C012  F145         	movff	?___flmul+1,powf@w+1
  2497  0013AA  C013  F146         	movff	?___flmul+2,powf@w+2
  2498  0013AE  C014  F147         	movff	?___flmul+3,powf@w+3
  2499  0013B2  C1B0  F011         	movff	powf@t,___flmul@b
  2500  0013B6  C1B1  F012         	movff	powf@t+1,___flmul@b+1
  2501  0013BA  C1B2  F013         	movff	powf@t+2,___flmul@b+2
  2502  0013BE  C1B3  F014         	movff	powf@t+3,___flmul@b+3
  2503  0013C2  0E00               	movlw	0
  2504  0013C4  6E15               	movwf	___flmul@a^0,c
  2505  0013C6  0EAA               	movlw	170
  2506  0013C8  6E16               	movwf	(___flmul@a+1)^0,c
  2507  0013CA  0EB8               	movlw	184
  2508  0013CC  6E17               	movwf	(___flmul@a+2)^0,c
  2509  0013CE  0E3F               	movlw	63
  2510  0013D0  6E18               	movwf	(___flmul@a+3)^0,c
  2511  0013D2  EC7C  F01D         	call	___flmul	;wreg free
  2512  0013D6  C011  F174         	movff	?___flmul,powf@u
  2513  0013DA  C012  F175         	movff	?___flmul+1,powf@u+1
  2514  0013DE  C013  F176         	movff	?___flmul+2,powf@u+2
  2515  0013E2  C014  F177         	movff	?___flmul+3,powf@u+3
  2516  0013E6  0E70               	movlw	112
  2517  0013E8  6E15               	movwf	___flmul@a^0,c
  2518  0013EA  0EA5               	movlw	165
  2519  0013EC  6E16               	movwf	(___flmul@a+1)^0,c
  2520  0013EE  0EEC               	movlw	236
  2521  0013F0  6E17               	movwf	(___flmul@a+2)^0,c
  2522  0013F2  0E36               	movlw	54
  2523  0013F4  6E18               	movwf	(___flmul@a+3)^0,c
  2524  0013F6  C1B0  F011         	movff	powf@t,___flmul@b
  2525  0013FA  C1B1  F012         	movff	powf@t+1,___flmul@b+1
  2526  0013FE  C1B2  F013         	movff	powf@t+2,___flmul@b+2
  2527  001402  C1B3  F014         	movff	powf@t+3,___flmul@b+3
  2528  001406  EC7C  F01D         	call	___flmul	;wreg free
  2529  00140A  C011  F02A         	movff	?___flmul,___flsub@b
  2530  00140E  C012  F02B         	movff	?___flmul+1,___flsub@b+1
  2531  001412  C013  F02C         	movff	?___flmul+2,___flsub@b+2
  2532  001416  C014  F02D         	movff	?___flmul+3,___flsub@b+3
  2533  00141A  0E3B               	movlw	59
  2534  00141C  6E15               	movwf	___flmul@a^0,c
  2535  00141E  0EAA               	movlw	170
  2536  001420  6E16               	movwf	(___flmul@a+1)^0,c
  2537  001422  0EB8               	movlw	184
  2538  001424  6E17               	movwf	(___flmul@a+2)^0,c
  2539  001426  0E3F               	movlw	63
  2540  001428  6E18               	movwf	(___flmul@a+3)^0,c
  2541  00142A  C144  F011         	movff	powf@w,___flmul@b
  2542  00142E  C145  F012         	movff	powf@w+1,___flmul@b+1
  2543  001432  C146  F013         	movff	powf@w+2,___flmul@b+2
  2544  001436  C147  F014         	movff	powf@w+3,___flmul@b+3
  2545  00143A  EC7C  F01D         	call	___flmul	;wreg free
  2546  00143E  C011  F02E         	movff	?___flmul,___flsub@a
  2547  001442  C012  F02F         	movff	?___flmul+1,___flsub@a+1
  2548  001446  C013  F030         	movff	?___flmul+2,___flsub@a+2
  2549  00144A  C014  F031         	movff	?___flmul+3,___flsub@a+3
  2550  00144E  EC27  F026         	call	___flsub	;wreg free
  2551  001452  C02A  F178         	movff	?___flsub,powf@v
  2552  001456  C02B  F179         	movff	?___flsub+1,powf@v+1
  2553  00145A  C02C  F17A         	movff	?___flsub+2,powf@v+2
  2554  00145E  C02D  F17B         	movff	?___flsub+3,powf@v+3
  2555  001462  C174  F001         	movff	powf@u,___fladd@b
  2556  001466  C175  F002         	movff	powf@u+1,___fladd@b+1
  2557  00146A  C176  F003         	movff	powf@u+2,___fladd@b+2
  2558  00146E  C177  F004         	movff	powf@u+3,___fladd@b+3
  2559  001472  C178  F005         	movff	powf@v,___fladd@a
  2560  001476  C179  F006         	movff	powf@v+1,___fladd@a+1
  2561  00147A  C17A  F007         	movff	powf@v+2,___fladd@a+2
  2562  00147E  C17B  F008         	movff	powf@v+3,___fladd@a+3
  2563  001482  EC1C  F01B         	call	___fladd	;wreg free
  2564  001486  C001  F180         	movff	?___fladd,powf@t1
  2565  00148A  C002  F181         	movff	?___fladd+1,powf@t1+1
  2566  00148E  C003  F182         	movff	?___fladd+2,powf@t1+2
  2567  001492  C004  F183         	movff	?___fladd+3,powf@t1+3
  2568  001496  C180  F1B8         	movff	powf@t1,powf@__xc8_float_word
  2569  00149A  C181  F1B9         	movff	powf@t1+1,powf@__xc8_float_word+1
  2570  00149E  C182  F1BA         	movff	powf@t1+2,powf@__xc8_float_word+2
  2571  0014A2  C183  F1BB         	movff	powf@t1+3,powf@__xc8_float_word+3
  2572  0014A6  C1B8  F190         	movff	powf@__xc8_float_word,powf@is
  2573  0014AA  C1B9  F191         	movff	powf@__xc8_float_word+1,powf@is+1
  2574  0014AE  C1BA  F192         	movff	powf@__xc8_float_word+2,powf@is+2
  2575  0014B2  C1BB  F193         	movff	powf@__xc8_float_word+3,powf@is+3
  2576  0014B6  0E00               	movlw	0
  2577  0014B8  0101               	movlb	1	; () banked
  2578  0014BA  1590               	andwf	powf@is& (0+255),w,b
  2579  0014BC  6FB8               	movwf	powf@__xc8_float_word& (0+255),b
  2580  0014BE  0EF0               	movlw	240
  2581  0014C0  1591               	andwf	(powf@is+1)& (0+255),w,b
  2582  0014C2  6FB9               	movwf	(powf@__xc8_float_word+1)& (0+255),b
  2583  0014C4  0EFF               	movlw	255
  2584  0014C6  1592               	andwf	(powf@is+2)& (0+255),w,b
  2585  0014C8  6FBA               	movwf	(powf@__xc8_float_word+2)& (0+255),b
  2586  0014CA  0EFF               	movlw	255
  2587  0014CC  1593               	andwf	(powf@is+3)& (0+255),w,b
  2588  0014CE  6FBB               	movwf	(powf@__xc8_float_word+3)& (0+255),b
  2589  0014D0                     
  2590                           ; BSR set to: 1
  2591  0014D0  C1B8  F180         	movff	powf@__xc8_float_word,powf@t1
  2592  0014D4  C1B9  F181         	movff	powf@__xc8_float_word+1,powf@t1+1
  2593  0014D8  C1BA  F182         	movff	powf@__xc8_float_word+2,powf@t1+2
  2594  0014DC  C1BB  F183         	movff	powf@__xc8_float_word+3,powf@t1+3
  2595  0014E0                     
  2596                           ; BSR set to: 1
  2597  0014E0  C174  F02E         	movff	powf@u,___flsub@a
  2598  0014E4  C175  F02F         	movff	powf@u+1,___flsub@a+1
  2599  0014E8  C176  F030         	movff	powf@u+2,___flsub@a+2
  2600  0014EC  C177  F031         	movff	powf@u+3,___flsub@a+3
  2601  0014F0  C180  F02A         	movff	powf@t1,___flsub@b
  2602  0014F4  C181  F02B         	movff	powf@t1+1,___flsub@b+1
  2603  0014F8  C182  F02C         	movff	powf@t1+2,___flsub@b+2
  2604  0014FC  C183  F02D         	movff	powf@t1+3,___flsub@b+3
  2605  001500  EC27  F026         	call	___flsub	;wreg free
  2606  001504  C02A  F194         	movff	?___flsub,_powf$846
  2607  001508  C02B  F195         	movff	?___flsub+1,_powf$846+1
  2608  00150C  C02C  F196         	movff	?___flsub+2,_powf$846+2
  2609  001510  C02D  F197         	movff	?___flsub+3,_powf$846+3
  2610  001514  C178  F02A         	movff	powf@v,___flsub@b
  2611  001518  C179  F02B         	movff	powf@v+1,___flsub@b+1
  2612  00151C  C17A  F02C         	movff	powf@v+2,___flsub@b+2
  2613  001520  C17B  F02D         	movff	powf@v+3,___flsub@b+3
  2614  001524  C194  F02E         	movff	_powf$846,___flsub@a
  2615  001528  C195  F02F         	movff	_powf$846+1,___flsub@a+1
  2616  00152C  C196  F030         	movff	_powf$846+2,___flsub@a+2
  2617  001530  C197  F031         	movff	_powf$846+3,___flsub@a+3
  2618  001534  EC27  F026         	call	___flsub	;wreg free
  2619  001538  C02A  F11C         	movff	?___flsub,powf@t2
  2620  00153C  C02B  F11D         	movff	?___flsub+1,powf@t2+1
  2621  001540  C02C  F11E         	movff	?___flsub+2,powf@t2+2
  2622  001544  C02D  F11F         	movff	?___flsub+3,powf@t2+3
  2623  001548  EFEE  F011         	goto	l3296
  2624  00154C                     l3140:
  2625                           
  2626                           ; BSR set to: 1
  2627  00154C  0E00               	movlw	0
  2628  00154E  6F7C               	movwf	powf@n& (0+255),b
  2629  001550  0E00               	movlw	0
  2630  001552  6F7D               	movwf	(powf@n+1)& (0+255),b
  2631  001554  0E00               	movlw	0
  2632  001556  6F7E               	movwf	(powf@n+2)& (0+255),b
  2633  001558  0E00               	movlw	0
  2634  00155A  6F7F               	movwf	(powf@n+3)& (0+255),b
  2635  00155C                     
  2636                           ; BSR set to: 1
  2637  00155C  BFAB               	btfsc	(powf@ix+3)& (0+255),7,b
  2638  00155E  EFBC  F00A         	goto	u3570
  2639  001562  51AB               	movf	(powf@ix+3)& (0+255),w,b
  2640  001564  E107               	bnz	u3571
  2641  001566  0E80               	movlw	128
  2642  001568  5DAA               	subwf	(powf@ix+2)& (0+255),w,b
  2643  00156A  B0D8               	btfsc	status,0,c
  2644  00156C  EFBA  F00A         	goto	u3571
  2645  001570  EFBC  F00A         	goto	u3570
  2646  001574                     u3571:
  2647  001574  EFEF  F00A         	goto	l3152
  2648  001578                     u3570:
  2649  001578                     
  2650                           ; BSR set to: 1
  2651  001578  C170  F011         	movff	powf@ax,___flmul@b
  2652  00157C  C171  F012         	movff	powf@ax+1,___flmul@b+1
  2653  001580  C172  F013         	movff	powf@ax+2,___flmul@b+2
  2654  001584  C173  F014         	movff	powf@ax+3,___flmul@b+3
  2655  001588  0E00               	movlw	0
  2656  00158A  6E15               	movwf	___flmul@a^0,c
  2657  00158C  0E00               	movlw	0
  2658  00158E  6E16               	movwf	(___flmul@a+1)^0,c
  2659  001590  0E80               	movlw	128
  2660  001592  6E17               	movwf	(___flmul@a+2)^0,c
  2661  001594  0E4B               	movlw	75
  2662  001596  6E18               	movwf	(___flmul@a+3)^0,c
  2663  001598  EC7C  F01D         	call	___flmul	;wreg free
  2664  00159C  C011  F170         	movff	?___flmul,powf@ax
  2665  0015A0  C012  F171         	movff	?___flmul+1,powf@ax+1
  2666  0015A4  C013  F172         	movff	?___flmul+2,powf@ax+2
  2667  0015A8  C014  F173         	movff	?___flmul+3,powf@ax+3
  2668  0015AC  0EE8               	movlw	232
  2669  0015AE  0101               	movlb	1	; () banked
  2670  0015B0  277C               	addwf	powf@n& (0+255),f,b
  2671  0015B2  0EFF               	movlw	255
  2672  0015B4  237D               	addwfc	(powf@n+1)& (0+255),f,b
  2673  0015B6  0EFF               	movlw	255
  2674  0015B8  237E               	addwfc	(powf@n+2)& (0+255),f,b
  2675  0015BA  0EFF               	movlw	255
  2676  0015BC  237F               	addwfc	(powf@n+3)& (0+255),f,b
  2677  0015BE                     
  2678                           ; BSR set to: 1
  2679  0015BE  C170  F1B8         	movff	powf@ax,powf@__xc8_float_word
  2680  0015C2  C171  F1B9         	movff	powf@ax+1,powf@__xc8_float_word+1
  2681  0015C6  C172  F1BA         	movff	powf@ax+2,powf@__xc8_float_word+2
  2682  0015CA  C173  F1BB         	movff	powf@ax+3,powf@__xc8_float_word+3
  2683  0015CE                     
  2684                           ; BSR set to: 1
  2685  0015CE  C1B8  F1A8         	movff	powf@__xc8_float_word,powf@ix
  2686  0015D2  C1B9  F1A9         	movff	powf@__xc8_float_word+1,powf@ix+1
  2687  0015D6  C1BA  F1AA         	movff	powf@__xc8_float_word+2,powf@ix+2
  2688  0015DA  C1BB  F1AB         	movff	powf@__xc8_float_word+3,powf@ix+3
  2689  0015DE                     l3152:
  2690                           
  2691                           ; BSR set to: 1
  2692  0015DE  0E17               	movlw	23
  2693  0015E0  6E4B               	movwf	??_powf^0,c
  2694  0015E2  C1A8  F04C         	movff	powf@ix,??_powf+1
  2695  0015E6  C1A9  F04D         	movff	powf@ix+1,??_powf+2
  2696  0015EA  C1AA  F04E         	movff	powf@ix+2,??_powf+3
  2697  0015EE  C1AB  F04F         	movff	powf@ix+3,??_powf+4
  2698  0015F2                     u3585:
  2699  0015F2  664B               	tstfsz	??_powf^0,c
  2700  0015F4  EFFE  F00A         	goto	u3586
  2701  0015F8  EF06  F00B         	goto	u3587
  2702  0015FC                     u3586:
  2703  0015FC  344F               	rlcf	(??_powf+4)^0,w,c
  2704  0015FE  324F               	rrcf	(??_powf+4)^0,f,c
  2705  001600  324E               	rrcf	(??_powf+3)^0,f,c
  2706  001602  324D               	rrcf	(??_powf+2)^0,f,c
  2707  001604  324C               	rrcf	(??_powf+1)^0,f,c
  2708  001606  2E4B               	decfsz	??_powf^0,f,c
  2709  001608  EFF9  F00A         	goto	u3585
  2710  00160C                     u3587:
  2711  00160C  0E81               	movlw	129
  2712  00160E  244C               	addwf	(??_powf+1)^0,w,c
  2713  001610  6E50               	movwf	(??_powf+5)^0,c
  2714  001612  0EFF               	movlw	255
  2715  001614  204D               	addwfc	(??_powf+2)^0,w,c
  2716  001616  6E51               	movwf	(??_powf+6)^0,c
  2717  001618  0EFF               	movlw	255
  2718  00161A  204E               	addwfc	(??_powf+3)^0,w,c
  2719  00161C  6E52               	movwf	(??_powf+7)^0,c
  2720  00161E  0EFF               	movlw	255
  2721  001620  204F               	addwfc	(??_powf+4)^0,w,c
  2722  001622  6E53               	movwf	(??_powf+8)^0,c
  2723  001624  5050               	movf	(??_powf+5)^0,w,c
  2724  001626  0101               	movlb	1	; () banked
  2725  001628  277C               	addwf	powf@n& (0+255),f,b
  2726  00162A  5051               	movf	(??_powf+6)^0,w,c
  2727  00162C  237D               	addwfc	(powf@n+1)& (0+255),f,b
  2728  00162E  5052               	movf	(??_powf+7)^0,w,c
  2729  001630  237E               	addwfc	(powf@n+2)& (0+255),f,b
  2730  001632  5053               	movf	(??_powf+8)^0,w,c
  2731  001634  237F               	addwfc	(powf@n+3)& (0+255),f,b
  2732  001636                     
  2733                           ; BSR set to: 1
  2734  001636  0EFF               	movlw	255
  2735  001638  15A8               	andwf	powf@ix& (0+255),w,b
  2736  00163A  6FAC               	movwf	powf@j& (0+255),b
  2737  00163C  0EFF               	movlw	255
  2738  00163E  15A9               	andwf	(powf@ix+1)& (0+255),w,b
  2739  001640  6FAD               	movwf	(powf@j+1)& (0+255),b
  2740  001642  0E7F               	movlw	127
  2741  001644  15AA               	andwf	(powf@ix+2)& (0+255),w,b
  2742  001646  6FAE               	movwf	(powf@j+2)& (0+255),b
  2743  001648  0E00               	movlw	0
  2744  00164A  15AB               	andwf	(powf@ix+3)& (0+255),w,b
  2745  00164C  6FAF               	movwf	(powf@j+3)& (0+255),b
  2746  00164E                     
  2747                           ; BSR set to: 1
  2748  00164E  0E00               	movlw	0
  2749  001650  11AC               	iorwf	powf@j& (0+255),w,b
  2750  001652  6FA8               	movwf	powf@ix& (0+255),b
  2751  001654  0E00               	movlw	0
  2752  001656  11AD               	iorwf	(powf@j+1)& (0+255),w,b
  2753  001658  6FA9               	movwf	(powf@ix+1)& (0+255),b
  2754  00165A  0E80               	movlw	128
  2755  00165C  11AE               	iorwf	(powf@j+2)& (0+255),w,b
  2756  00165E  6FAA               	movwf	(powf@ix+2)& (0+255),b
  2757  001660  0E3F               	movlw	63
  2758  001662  11AF               	iorwf	(powf@j+3)& (0+255),w,b
  2759  001664  6FAB               	movwf	(powf@ix+3)& (0+255),b
  2760  001666                     
  2761                           ; BSR set to: 1
  2762  001666  BFAF               	btfsc	(powf@j+3)& (0+255),7,b
  2763  001668  EF45  F00B         	goto	u3590
  2764  00166C  51AF               	movf	(powf@j+3)& (0+255),w,b
  2765  00166E  E10B               	bnz	u3591
  2766  001670  0E72               	movlw	114
  2767  001672  5DAC               	subwf	powf@j& (0+255),w,b
  2768  001674  0EC4               	movlw	196
  2769  001676  59AD               	subwfb	(powf@j+1)& (0+255),w,b
  2770  001678  0E1C               	movlw	28
  2771  00167A  59AE               	subwfb	(powf@j+2)& (0+255),w,b
  2772  00167C  B0D8               	btfsc	status,0,c
  2773  00167E  EF43  F00B         	goto	u3591
  2774  001682  EF45  F00B         	goto	u3590
  2775  001686                     u3591:
  2776  001686  EF4F  F00B         	goto	l3162
  2777  00168A                     u3590:
  2778  00168A                     
  2779                           ; BSR set to: 1
  2780  00168A  0E00               	movlw	0
  2781  00168C  6FA0               	movwf	powf@k& (0+255),b
  2782  00168E  0E00               	movlw	0
  2783  001690  6FA1               	movwf	(powf@k+1)& (0+255),b
  2784  001692  0E00               	movlw	0
  2785  001694  6FA2               	movwf	(powf@k+2)& (0+255),b
  2786  001696  0E00               	movlw	0
  2787  001698  6FA3               	movwf	(powf@k+3)& (0+255),b
  2788  00169A  EF81  F00B         	goto	l3172
  2789  00169E                     l3162:
  2790                           
  2791                           ; BSR set to: 1
  2792  00169E  BFAF               	btfsc	(powf@j+3)& (0+255),7,b
  2793  0016A0  EF61  F00B         	goto	u3600
  2794  0016A4  51AF               	movf	(powf@j+3)& (0+255),w,b
  2795  0016A6  E10B               	bnz	u3601
  2796  0016A8  0ED7               	movlw	215
  2797  0016AA  5DAC               	subwf	powf@j& (0+255),w,b
  2798  0016AC  0EB3               	movlw	179
  2799  0016AE  59AD               	subwfb	(powf@j+1)& (0+255),w,b
  2800  0016B0  0E5D               	movlw	93
  2801  0016B2  59AE               	subwfb	(powf@j+2)& (0+255),w,b
  2802  0016B4  B0D8               	btfsc	status,0,c
  2803  0016B6  EF5F  F00B         	goto	u3601
  2804  0016BA  EF61  F00B         	goto	u3600
  2805  0016BE                     u3601:
  2806  0016BE  EF6B  F00B         	goto	l3166
  2807  0016C2                     u3600:
  2808  0016C2                     
  2809                           ; BSR set to: 1
  2810  0016C2  0E01               	movlw	1
  2811  0016C4  6FA0               	movwf	powf@k& (0+255),b
  2812  0016C6  0E00               	movlw	0
  2813  0016C8  6FA1               	movwf	(powf@k+1)& (0+255),b
  2814  0016CA  0E00               	movlw	0
  2815  0016CC  6FA2               	movwf	(powf@k+2)& (0+255),b
  2816  0016CE  0E00               	movlw	0
  2817  0016D0  6FA3               	movwf	(powf@k+3)& (0+255),b
  2818  0016D2  EF81  F00B         	goto	l3172
  2819  0016D6                     l3166:
  2820                           
  2821                           ; BSR set to: 1
  2822  0016D6  0E00               	movlw	0
  2823  0016D8  6FA0               	movwf	powf@k& (0+255),b
  2824  0016DA  0E00               	movlw	0
  2825  0016DC  6FA1               	movwf	(powf@k+1)& (0+255),b
  2826  0016DE  0E00               	movlw	0
  2827  0016E0  6FA2               	movwf	(powf@k+2)& (0+255),b
  2828  0016E2  0E00               	movlw	0
  2829  0016E4  6FA3               	movwf	(powf@k+3)& (0+255),b
  2830  0016E6                     
  2831                           ; BSR set to: 1
  2832  0016E6  0E01               	movlw	1
  2833  0016E8  277C               	addwf	powf@n& (0+255),f,b
  2834  0016EA  0E00               	movlw	0
  2835  0016EC  237D               	addwfc	(powf@n+1)& (0+255),f,b
  2836  0016EE  237E               	addwfc	(powf@n+2)& (0+255),f,b
  2837  0016F0  237F               	addwfc	(powf@n+3)& (0+255),f,b
  2838  0016F2                     
  2839                           ; BSR set to: 1
  2840  0016F2  0E00               	movlw	0
  2841  0016F4  27A8               	addwf	powf@ix& (0+255),f,b
  2842  0016F6  0E00               	movlw	0
  2843  0016F8  23A9               	addwfc	(powf@ix+1)& (0+255),f,b
  2844  0016FA  0E80               	movlw	128
  2845  0016FC  23AA               	addwfc	(powf@ix+2)& (0+255),f,b
  2846  0016FE  0EFF               	movlw	255
  2847  001700  23AB               	addwfc	(powf@ix+3)& (0+255),f,b
  2848  001702                     l3172:
  2849                           
  2850                           ; BSR set to: 1
  2851  001702  C1A8  F1B8         	movff	powf@ix,powf@__xc8_float_word
  2852  001706  C1A9  F1B9         	movff	powf@ix+1,powf@__xc8_float_word+1
  2853  00170A  C1AA  F1BA         	movff	powf@ix+2,powf@__xc8_float_word+2
  2854  00170E  C1AB  F1BB         	movff	powf@ix+3,powf@__xc8_float_word+3
  2855  001712                     
  2856                           ; BSR set to: 1
  2857  001712  C1B8  F170         	movff	powf@__xc8_float_word,powf@ax
  2858  001716  C1B9  F171         	movff	powf@__xc8_float_word+1,powf@ax+1
  2859  00171A  C1BA  F172         	movff	powf@__xc8_float_word+2,powf@ax+2
  2860  00171E  C1BB  F173         	movff	powf@__xc8_float_word+3,powf@ax+3
  2861  001722                     
  2862                           ; BSR set to: 1
  2863  001722  C170  F02A         	movff	powf@ax,___flsub@b
  2864  001726  C171  F02B         	movff	powf@ax+1,___flsub@b+1
  2865  00172A  C172  F02C         	movff	powf@ax+2,___flsub@b+2
  2866  00172E  C173  F02D         	movff	powf@ax+3,___flsub@b+3
  2867  001732  C1A0  F04B         	movff	powf@k,??_powf
  2868  001736  C1A1  F04C         	movff	powf@k+1,??_powf+1
  2869  00173A  90D8               	bcf	status,0,c
  2870  00173C  364B               	rlcf	??_powf^0,f,c
  2871  00173E  364C               	rlcf	(??_powf+1)^0,f,c
  2872  001740  90D8               	bcf	status,0,c
  2873  001742  364B               	rlcf	??_powf^0,f,c
  2874  001744  364C               	rlcf	(??_powf+1)^0,f,c
  2875  001746  0E69               	movlw	low _bp
  2876  001748  244B               	addwf	??_powf^0,w,c
  2877  00174A  6EF6               	movwf	tblptrl,c
  2878  00174C  0E08               	movlw	high _bp
  2879  00174E  204C               	addwfc	(??_powf+1)^0,w,c
  2880  001750  6EF7               	movwf	tblptrh,c
  2881  001752                     	if	0	;There are less than 3 active tblptr bytes
  2882  001752                     	endif
  2883  001752  0009               	tblrd		*+
  2884  001754  CFF5 F02E          	movff	tablat,___flsub@a
  2885  001758  0009               	tblrd		*+
  2886  00175A  CFF5 F02F          	movff	tablat,___flsub@a+1
  2887  00175E  0009               	tblrd		*+
  2888  001760  CFF5 F030          	movff	tablat,___flsub@a+2
  2889  001764  000A               	tblrd		*-
  2890  001766  CFF5 F031          	movff	tablat,___flsub@a+3
  2891  00176A  EC27  F026         	call	___flsub	;wreg free
  2892  00176E  C02A  F174         	movff	?___flsub,powf@u
  2893  001772  C02B  F175         	movff	?___flsub+1,powf@u+1
  2894  001776  C02C  F176         	movff	?___flsub+2,powf@u+2
  2895  00177A  C02D  F177         	movff	?___flsub+3,powf@u+3
  2896  00177E  0E00               	movlw	0
  2897  001780  6E32               	movwf	___fldiv@b^0,c
  2898  001782  0E00               	movlw	0
  2899  001784  6E33               	movwf	(___fldiv@b+1)^0,c
  2900  001786  0E80               	movlw	128
  2901  001788  6E34               	movwf	(___fldiv@b+2)^0,c
  2902  00178A  0E3F               	movlw	63
  2903  00178C  6E35               	movwf	(___fldiv@b+3)^0,c
  2904  00178E  C170  F005         	movff	powf@ax,___fladd@a
  2905  001792  C171  F006         	movff	powf@ax+1,___fladd@a+1
  2906  001796  C172  F007         	movff	powf@ax+2,___fladd@a+2
  2907  00179A  C173  F008         	movff	powf@ax+3,___fladd@a+3
  2908  00179E  C1A0  F04B         	movff	powf@k,??_powf
  2909  0017A2  C1A1  F04C         	movff	powf@k+1,??_powf+1
  2910  0017A6  90D8               	bcf	status,0,c
  2911  0017A8  364B               	rlcf	??_powf^0,f,c
  2912  0017AA  364C               	rlcf	(??_powf+1)^0,f,c
  2913  0017AC  90D8               	bcf	status,0,c
  2914  0017AE  364B               	rlcf	??_powf^0,f,c
  2915  0017B0  364C               	rlcf	(??_powf+1)^0,f,c
  2916  0017B2  0E69               	movlw	low _bp
  2917  0017B4  244B               	addwf	??_powf^0,w,c
  2918  0017B6  6EF6               	movwf	tblptrl,c
  2919  0017B8  0E08               	movlw	high _bp
  2920  0017BA  204C               	addwfc	(??_powf+1)^0,w,c
  2921  0017BC  6EF7               	movwf	tblptrh,c
  2922  0017BE                     	if	0	;There are less than 3 active tblptr bytes
  2923  0017BE                     	endif
  2924  0017BE  0009               	tblrd		*+
  2925  0017C0  CFF5 F001          	movff	tablat,___fladd@b
  2926  0017C4  0009               	tblrd		*+
  2927  0017C6  CFF5 F002          	movff	tablat,___fladd@b+1
  2928  0017CA  0009               	tblrd		*+
  2929  0017CC  CFF5 F003          	movff	tablat,___fladd@b+2
  2930  0017D0  000A               	tblrd		*-
  2931  0017D2  CFF5 F004          	movff	tablat,___fladd@b+3
  2932  0017D6  EC1C  F01B         	call	___fladd	;wreg free
  2933  0017DA  C001  F036         	movff	?___fladd,___fldiv@a
  2934  0017DE  C002  F037         	movff	?___fladd+1,___fldiv@a+1
  2935  0017E2  C003  F038         	movff	?___fladd+2,___fldiv@a+2
  2936  0017E6  C004  F039         	movff	?___fladd+3,___fldiv@a+3
  2937  0017EA  EC91  F01F         	call	___fldiv	;wreg free
  2938  0017EE  C032  F178         	movff	?___fldiv,powf@v
  2939  0017F2  C033  F179         	movff	?___fldiv+1,powf@v+1
  2940  0017F6  C034  F17A         	movff	?___fldiv+2,powf@v+2
  2941  0017FA  C035  F17B         	movff	?___fldiv+3,powf@v+3
  2942  0017FE  C174  F011         	movff	powf@u,___flmul@b
  2943  001802  C175  F012         	movff	powf@u+1,___flmul@b+1
  2944  001806  C176  F013         	movff	powf@u+2,___flmul@b+2
  2945  00180A  C177  F014         	movff	powf@u+3,___flmul@b+3
  2946  00180E  C178  F015         	movff	powf@v,___flmul@a
  2947  001812  C179  F016         	movff	powf@v+1,___flmul@a+1
  2948  001816  C17A  F017         	movff	powf@v+2,___flmul@a+2
  2949  00181A  C17B  F018         	movff	powf@v+3,___flmul@a+3
  2950  00181E  EC7C  F01D         	call	___flmul	;wreg free
  2951  001822  C011  F15C         	movff	?___flmul,powf@s
  2952  001826  C012  F15D         	movff	?___flmul+1,powf@s+1
  2953  00182A  C013  F15E         	movff	?___flmul+2,powf@s+2
  2954  00182E  C014  F15F         	movff	?___flmul+3,powf@s+3
  2955  001832  C15C  F16C         	movff	powf@s,powf@s_h
  2956  001836  C15D  F16D         	movff	powf@s+1,powf@s_h+1
  2957  00183A  C15E  F16E         	movff	powf@s+2,powf@s_h+2
  2958  00183E  C15F  F16F         	movff	powf@s+3,powf@s_h+3
  2959  001842  C16C  F1B8         	movff	powf@s_h,powf@__xc8_float_word
  2960  001846  C16D  F1B9         	movff	powf@s_h+1,powf@__xc8_float_word+1
  2961  00184A  C16E  F1BA         	movff	powf@s_h+2,powf@__xc8_float_word+2
  2962  00184E  C16F  F1BB         	movff	powf@s_h+3,powf@__xc8_float_word+3
  2963  001852  C1B8  F190         	movff	powf@__xc8_float_word,powf@is
  2964  001856  C1B9  F191         	movff	powf@__xc8_float_word+1,powf@is+1
  2965  00185A  C1BA  F192         	movff	powf@__xc8_float_word+2,powf@is+2
  2966  00185E  C1BB  F193         	movff	powf@__xc8_float_word+3,powf@is+3
  2967  001862  0E00               	movlw	0
  2968  001864  0101               	movlb	1	; () banked
  2969  001866  1590               	andwf	powf@is& (0+255),w,b
  2970  001868  6FB8               	movwf	powf@__xc8_float_word& (0+255),b
  2971  00186A  0EF0               	movlw	240
  2972  00186C  1591               	andwf	(powf@is+1)& (0+255),w,b
  2973  00186E  6FB9               	movwf	(powf@__xc8_float_word+1)& (0+255),b
  2974  001870  0EFF               	movlw	255
  2975  001872  1592               	andwf	(powf@is+2)& (0+255),w,b
  2976  001874  6FBA               	movwf	(powf@__xc8_float_word+2)& (0+255),b
  2977  001876  0EFF               	movlw	255
  2978  001878  1593               	andwf	(powf@is+3)& (0+255),w,b
  2979  00187A  6FBB               	movwf	(powf@__xc8_float_word+3)& (0+255),b
  2980  00187C                     
  2981                           ; BSR set to: 1
  2982  00187C  C1B8  F16C         	movff	powf@__xc8_float_word,powf@s_h
  2983  001880  C1B9  F16D         	movff	powf@__xc8_float_word+1,powf@s_h+1
  2984  001884  C1BA  F16E         	movff	powf@__xc8_float_word+2,powf@s_h+2
  2985  001888  C1BB  F16F         	movff	powf@__xc8_float_word+3,powf@s_h+3
  2986  00188C                     
  2987                           ; BSR set to: 1
  2988  00188C  C1A8  F04B         	movff	powf@ix,??_powf
  2989  001890  C1A9  F04C         	movff	powf@ix+1,??_powf+1
  2990  001894  C1AA  F04D         	movff	powf@ix+2,??_powf+2
  2991  001898  C1AB  F04E         	movff	powf@ix+3,??_powf+3
  2992  00189C  344E               	rlcf	(??_powf+3)^0,w,c
  2993  00189E  324E               	rrcf	(??_powf+3)^0,f,c
  2994  0018A0  324D               	rrcf	(??_powf+2)^0,f,c
  2995  0018A2  324C               	rrcf	(??_powf+1)^0,f,c
  2996  0018A4  324B               	rrcf	??_powf^0,f,c
  2997  0018A6  0E00               	movlw	0
  2998  0018A8  144B               	andwf	??_powf^0,w,c
  2999  0018AA  6E4F               	movwf	(??_powf+4)^0,c
  3000  0018AC  0EF0               	movlw	240
  3001  0018AE  144C               	andwf	(??_powf+1)^0,w,c
  3002  0018B0  6E50               	movwf	(??_powf+5)^0,c
  3003  0018B2  0EFF               	movlw	255
  3004  0018B4  144D               	andwf	(??_powf+2)^0,w,c
  3005  0018B6  6E51               	movwf	(??_powf+6)^0,c
  3006  0018B8  0EFF               	movlw	255
  3007  0018BA  144E               	andwf	(??_powf+3)^0,w,c
  3008  0018BC  6E52               	movwf	(??_powf+7)^0,c
  3009  0018BE  0E00               	movlw	0
  3010  0018C0  104F               	iorwf	(??_powf+4)^0,w,c
  3011  0018C2  6F90               	movwf	powf@is& (0+255),b
  3012  0018C4  0E00               	movlw	0
  3013  0018C6  1050               	iorwf	(??_powf+5)^0,w,c
  3014  0018C8  6F91               	movwf	(powf@is+1)& (0+255),b
  3015  0018CA  0E00               	movlw	0
  3016  0018CC  1051               	iorwf	(??_powf+6)^0,w,c
  3017  0018CE  6F92               	movwf	(powf@is+2)& (0+255),b
  3018  0018D0  0E20               	movlw	32
  3019  0018D2  1052               	iorwf	(??_powf+7)^0,w,c
  3020  0018D4  6F93               	movwf	(powf@is+3)& (0+255),b
  3021  0018D6                     
  3022                           ; BSR set to: 1
  3023  0018D6  C1A0  F04B         	movff	powf@k,??_powf
  3024  0018DA  C1A1  F04C         	movff	powf@k+1,??_powf+1
  3025  0018DE  C1A2  F04D         	movff	powf@k+2,??_powf+2
  3026  0018E2  C1A3  F04E         	movff	powf@k+3,??_powf+3
  3027  0018E6  0E15               	movlw	21
  3028  0018E8                     u3615:
  3029  0018E8  90D8               	bcf	status,0,c
  3030  0018EA  364B               	rlcf	??_powf^0,f,c
  3031  0018EC  364C               	rlcf	(??_powf+1)^0,f,c
  3032  0018EE  364D               	rlcf	(??_powf+2)^0,f,c
  3033  0018F0  364E               	rlcf	(??_powf+3)^0,f,c
  3034  0018F2  2EE8               	decfsz	wreg,f,c
  3035  0018F4  EF74  F00C         	goto	u3615
  3036  0018F8  5190               	movf	powf@is& (0+255),w,b
  3037  0018FA  244B               	addwf	??_powf^0,w,c
  3038  0018FC  6E4F               	movwf	(??_powf+4)^0,c
  3039  0018FE  5191               	movf	(powf@is+1)& (0+255),w,b
  3040  001900  204C               	addwfc	(??_powf+1)^0,w,c
  3041  001902  6E50               	movwf	(??_powf+5)^0,c
  3042  001904  5192               	movf	(powf@is+2)& (0+255),w,b
  3043  001906  204D               	addwfc	(??_powf+2)^0,w,c
  3044  001908  6E51               	movwf	(??_powf+6)^0,c
  3045  00190A  5193               	movf	(powf@is+3)& (0+255),w,b
  3046  00190C  204E               	addwfc	(??_powf+3)^0,w,c
  3047  00190E  6E52               	movwf	(??_powf+7)^0,c
  3048  001910  0E00               	movlw	0
  3049  001912  244F               	addwf	(??_powf+4)^0,w,c
  3050  001914  6FB8               	movwf	powf@__xc8_float_word& (0+255),b
  3051  001916  0E00               	movlw	0
  3052  001918  2050               	addwfc	(??_powf+5)^0,w,c
  3053  00191A  6FB9               	movwf	(powf@__xc8_float_word+1)& (0+255),b
  3054  00191C  0E40               	movlw	64
  3055  00191E  2051               	addwfc	(??_powf+6)^0,w,c
  3056  001920  6FBA               	movwf	(powf@__xc8_float_word+2)& (0+255),b
  3057  001922  0E00               	movlw	0
  3058  001924  2052               	addwfc	(??_powf+7)^0,w,c
  3059  001926  6FBB               	movwf	(powf@__xc8_float_word+3)& (0+255),b
  3060  001928                     
  3061                           ; BSR set to: 1
  3062  001928  C1B8  F168         	movff	powf@__xc8_float_word,powf@t_h
  3063  00192C  C1B9  F169         	movff	powf@__xc8_float_word+1,powf@t_h+1
  3064  001930  C1BA  F16A         	movff	powf@__xc8_float_word+2,powf@t_h+2
  3065  001934  C1BB  F16B         	movff	powf@__xc8_float_word+3,powf@t_h+3
  3066  001938                     
  3067                           ; BSR set to: 1
  3068  001938  C1A0  F04B         	movff	powf@k,??_powf
  3069  00193C  C1A1  F04C         	movff	powf@k+1,??_powf+1
  3070  001940  90D8               	bcf	status,0,c
  3071  001942  364B               	rlcf	??_powf^0,f,c
  3072  001944  364C               	rlcf	(??_powf+1)^0,f,c
  3073  001946  90D8               	bcf	status,0,c
  3074  001948  364B               	rlcf	??_powf^0,f,c
  3075  00194A  364C               	rlcf	(??_powf+1)^0,f,c
  3076  00194C  0E69               	movlw	low _bp
  3077  00194E  244B               	addwf	??_powf^0,w,c
  3078  001950  6EF6               	movwf	tblptrl,c
  3079  001952  0E08               	movlw	high _bp
  3080  001954  204C               	addwfc	(??_powf+1)^0,w,c
  3081  001956  6EF7               	movwf	tblptrh,c
  3082  001958                     	if	0	;There are less than 3 active tblptr bytes
  3083  001958                     	endif
  3084  001958  0009               	tblrd		*+
  3085  00195A  CFF5 F02E          	movff	tablat,___flsub@a
  3086  00195E  0009               	tblrd		*+
  3087  001960  CFF5 F02F          	movff	tablat,___flsub@a+1
  3088  001964  0009               	tblrd		*+
  3089  001966  CFF5 F030          	movff	tablat,___flsub@a+2
  3090  00196A  000A               	tblrd		*-
  3091  00196C  CFF5 F031          	movff	tablat,___flsub@a+3
  3092  001970  C168  F02A         	movff	powf@t_h,___flsub@b
  3093  001974  C169  F02B         	movff	powf@t_h+1,___flsub@b+1
  3094  001978  C16A  F02C         	movff	powf@t_h+2,___flsub@b+2
  3095  00197C  C16B  F02D         	movff	powf@t_h+3,___flsub@b+3
  3096  001980  EC27  F026         	call	___flsub	;wreg free
  3097  001984  C02A  F194         	movff	?___flsub,_powf$846
  3098  001988  C02B  F195         	movff	?___flsub+1,_powf$846+1
  3099  00198C  C02C  F196         	movff	?___flsub+2,_powf$846+2
  3100  001990  C02D  F197         	movff	?___flsub+3,_powf$846+3
  3101  001994  C170  F02A         	movff	powf@ax,___flsub@b
  3102  001998  C171  F02B         	movff	powf@ax+1,___flsub@b+1
  3103  00199C  C172  F02C         	movff	powf@ax+2,___flsub@b+2
  3104  0019A0  C173  F02D         	movff	powf@ax+3,___flsub@b+3
  3105  0019A4  C194  F02E         	movff	_powf$846,___flsub@a
  3106  0019A8  C195  F02F         	movff	_powf$846+1,___flsub@a+1
  3107  0019AC  C196  F030         	movff	_powf$846+2,___flsub@a+2
  3108  0019B0  C197  F031         	movff	_powf$846+3,___flsub@a+3
  3109  0019B4  EC27  F026         	call	___flsub	;wreg free
  3110  0019B8  C02A  F134         	movff	?___flsub,powf@t_l
  3111  0019BC  C02B  F135         	movff	?___flsub+1,powf@t_l+1
  3112  0019C0  C02C  F136         	movff	?___flsub+2,powf@t_l+2
  3113  0019C4  C02D  F137         	movff	?___flsub+3,powf@t_l+3
  3114  0019C8  C168  F015         	movff	powf@t_h,___flmul@a
  3115  0019CC  C169  F016         	movff	powf@t_h+1,___flmul@a+1
  3116  0019D0  C16A  F017         	movff	powf@t_h+2,___flmul@a+2
  3117  0019D4  C16B  F018         	movff	powf@t_h+3,___flmul@a+3
  3118  0019D8  C16C  F011         	movff	powf@s_h,___flmul@b
  3119  0019DC  C16D  F012         	movff	powf@s_h+1,___flmul@b+1
  3120  0019E0  C16E  F013         	movff	powf@s_h+2,___flmul@b+2
  3121  0019E4  C16F  F014         	movff	powf@s_h+3,___flmul@b+3
  3122  0019E8  EC7C  F01D         	call	___flmul	;wreg free
  3123  0019EC  C011  F02E         	movff	?___flmul,___flsub@a
  3124  0019F0  C012  F02F         	movff	?___flmul+1,___flsub@a+1
  3125  0019F4  C013  F030         	movff	?___flmul+2,___flsub@a+2
  3126  0019F8  C014  F031         	movff	?___flmul+3,___flsub@a+3
  3127  0019FC  C174  F02A         	movff	powf@u,___flsub@b
  3128  001A00  C175  F02B         	movff	powf@u+1,___flsub@b+1
  3129  001A04  C176  F02C         	movff	powf@u+2,___flsub@b+2
  3130  001A08  C177  F02D         	movff	powf@u+3,___flsub@b+3
  3131  001A0C  EC27  F026         	call	___flsub	;wreg free
  3132  001A10  C02A  F194         	movff	?___flsub,_powf$846
  3133  001A14  C02B  F195         	movff	?___flsub+1,_powf$846+1
  3134  001A18  C02C  F196         	movff	?___flsub+2,_powf$846+2
  3135  001A1C  C02D  F197         	movff	?___flsub+3,_powf$846+3
  3136  001A20  C134  F015         	movff	powf@t_l,___flmul@a
  3137  001A24  C135  F016         	movff	powf@t_l+1,___flmul@a+1
  3138  001A28  C136  F017         	movff	powf@t_l+2,___flmul@a+2
  3139  001A2C  C137  F018         	movff	powf@t_l+3,___flmul@a+3
  3140  001A30  C16C  F011         	movff	powf@s_h,___flmul@b
  3141  001A34  C16D  F012         	movff	powf@s_h+1,___flmul@b+1
  3142  001A38  C16E  F013         	movff	powf@s_h+2,___flmul@b+2
  3143  001A3C  C16F  F014         	movff	powf@s_h+3,___flmul@b+3
  3144  001A40  EC7C  F01D         	call	___flmul	;wreg free
  3145  001A44  C011  F02E         	movff	?___flmul,___flsub@a
  3146  001A48  C012  F02F         	movff	?___flmul+1,___flsub@a+1
  3147  001A4C  C013  F030         	movff	?___flmul+2,___flsub@a+2
  3148  001A50  C014  F031         	movff	?___flmul+3,___flsub@a+3
  3149  001A54  C194  F02A         	movff	_powf$846,___flsub@b
  3150  001A58  C195  F02B         	movff	_powf$846+1,___flsub@b+1
  3151  001A5C  C196  F02C         	movff	_powf$846+2,___flsub@b+2
  3152  001A60  C197  F02D         	movff	_powf$846+3,___flsub@b+3
  3153  001A64  EC27  F026         	call	___flsub	;wreg free
  3154  001A68  C02A  F154         	movff	?___flsub,_powf$844
  3155  001A6C  C02B  F155         	movff	?___flsub+1,_powf$844+1
  3156  001A70  C02C  F156         	movff	?___flsub+2,_powf$844+2
  3157  001A74  C02D  F157         	movff	?___flsub+3,_powf$844+3
  3158  001A78  C154  F011         	movff	_powf$844,___flmul@b
  3159  001A7C  C155  F012         	movff	_powf$844+1,___flmul@b+1
  3160  001A80  C156  F013         	movff	_powf$844+2,___flmul@b+2
  3161  001A84  C157  F014         	movff	_powf$844+3,___flmul@b+3
  3162  001A88  C178  F015         	movff	powf@v,___flmul@a
  3163  001A8C  C179  F016         	movff	powf@v+1,___flmul@a+1
  3164  001A90  C17A  F017         	movff	powf@v+2,___flmul@a+2
  3165  001A94  C17B  F018         	movff	powf@v+3,___flmul@a+3
  3166  001A98  EC7C  F01D         	call	___flmul	;wreg free
  3167  001A9C  C011  F130         	movff	?___flmul,powf@s_l
  3168  001AA0  C012  F131         	movff	?___flmul+1,powf@s_l+1
  3169  001AA4  C013  F132         	movff	?___flmul+2,powf@s_l+2
  3170  001AA8  C014  F133         	movff	?___flmul+3,powf@s_l+3
  3171  001AAC  C15C  F011         	movff	powf@s,___flmul@b
  3172  001AB0  C15D  F012         	movff	powf@s+1,___flmul@b+1
  3173  001AB4  C15E  F013         	movff	powf@s+2,___flmul@b+2
  3174  001AB8  C15F  F014         	movff	powf@s+3,___flmul@b+3
  3175  001ABC  C15C  F015         	movff	powf@s,___flmul@a
  3176  001AC0  C15D  F016         	movff	powf@s+1,___flmul@a+1
  3177  001AC4  C15E  F017         	movff	powf@s+2,___flmul@a+2
  3178  001AC8  C15F  F018         	movff	powf@s+3,___flmul@a+3
  3179  001ACC  EC7C  F01D         	call	___flmul	;wreg free
  3180  001AD0  C011  F18C         	movff	?___flmul,powf@s2
  3181  001AD4  C012  F18D         	movff	?___flmul+1,powf@s2+1
  3182  001AD8  C013  F18E         	movff	?___flmul+2,powf@s2+2
  3183  001ADC  C014  F18F         	movff	?___flmul+3,powf@s2+3
  3184  001AE0  0E55               	movlw	85
  3185  001AE2  6E05               	movwf	___fladd@a^0,c
  3186  001AE4  0E32               	movlw	50
  3187  001AE6  6E06               	movwf	(___fladd@a+1)^0,c
  3188  001AE8  0E6C               	movlw	108
  3189  001AEA  6E07               	movwf	(___fladd@a+2)^0,c
  3190  001AEC  0E3E               	movlw	62
  3191  001AEE  6E08               	movwf	(___fladd@a+3)^0,c
  3192  001AF0  0E42               	movlw	66
  3193  001AF2  6E15               	movwf	___flmul@a^0,c
  3194  001AF4  0EF1               	movlw	241
  3195  001AF6  6E16               	movwf	(___flmul@a+1)^0,c
  3196  001AF8  0E53               	movlw	83
  3197  001AFA  6E17               	movwf	(___flmul@a+2)^0,c
  3198  001AFC  0E3E               	movlw	62
  3199  001AFE  6E18               	movwf	(___flmul@a+3)^0,c
  3200  001B00  C18C  F011         	movff	powf@s2,___flmul@b
  3201  001B04  C18D  F012         	movff	powf@s2+1,___flmul@b+1
  3202  001B08  C18E  F013         	movff	powf@s2+2,___flmul@b+2
  3203  001B0C  C18F  F014         	movff	powf@s2+3,___flmul@b+3
  3204  001B10  EC7C  F01D         	call	___flmul	;wreg free
  3205  001B14  C011  F001         	movff	?___flmul,___fladd@b
  3206  001B18  C012  F002         	movff	?___flmul+1,___fladd@b+1
  3207  001B1C  C013  F003         	movff	?___flmul+2,___fladd@b+2
  3208  001B20  C014  F004         	movff	?___flmul+3,___fladd@b+3
  3209  001B24  EC1C  F01B         	call	___fladd	;wreg free
  3210  001B28  C001  F1A4         	movff	?___fladd,_powf$843
  3211  001B2C  C002  F1A5         	movff	?___fladd+1,_powf$843+1
  3212  001B30  C003  F1A6         	movff	?___fladd+2,_powf$843+2
  3213  001B34  C004  F1A7         	movff	?___fladd+3,_powf$843+3
  3214  001B38  0E05               	movlw	5
  3215  001B3A  6E05               	movwf	___fladd@a^0,c
  3216  001B3C  0EA3               	movlw	163
  3217  001B3E  6E06               	movwf	(___fladd@a+1)^0,c
  3218  001B40  0E8B               	movlw	139
  3219  001B42  6E07               	movwf	(___fladd@a+2)^0,c
  3220  001B44  0E3E               	movlw	62
  3221  001B46  6E08               	movwf	(___fladd@a+3)^0,c
  3222  001B48  C18C  F015         	movff	powf@s2,___flmul@a
  3223  001B4C  C18D  F016         	movff	powf@s2+1,___flmul@a+1
  3224  001B50  C18E  F017         	movff	powf@s2+2,___flmul@a+2
  3225  001B54  C18F  F018         	movff	powf@s2+3,___flmul@a+3
  3226  001B58  C1A4  F011         	movff	_powf$843,___flmul@b
  3227  001B5C  C1A5  F012         	movff	_powf$843+1,___flmul@b+1
  3228  001B60  C1A6  F013         	movff	_powf$843+2,___flmul@b+2
  3229  001B64  C1A7  F014         	movff	_powf$843+3,___flmul@b+3
  3230  001B68  EC7C  F01D         	call	___flmul	;wreg free
  3231  001B6C  C011  F001         	movff	?___flmul,___fladd@b
  3232  001B70  C012  F002         	movff	?___flmul+1,___fladd@b+1
  3233  001B74  C013  F003         	movff	?___flmul+2,___fladd@b+2
  3234  001B78  C014  F004         	movff	?___flmul+3,___fladd@b+3
  3235  001B7C  EC1C  F01B         	call	___fladd	;wreg free
  3236  001B80  C001  F154         	movff	?___fladd,_powf$844
  3237  001B84  C002  F155         	movff	?___fladd+1,_powf$844+1
  3238  001B88  C003  F156         	movff	?___fladd+2,_powf$844+2
  3239  001B8C  C004  F157         	movff	?___fladd+3,_powf$844+3
  3240  001B90  0EAB               	movlw	171
  3241  001B92  6E05               	movwf	___fladd@a^0,c
  3242  001B94  0EAA               	movlw	170
  3243  001B96  6E06               	movwf	(___fladd@a+1)^0,c
  3244  001B98  0EAA               	movlw	170
  3245  001B9A  6E07               	movwf	(___fladd@a+2)^0,c
  3246  001B9C  0E3E               	movlw	62
  3247  001B9E  6E08               	movwf	(___fladd@a+3)^0,c
  3248  001BA0  C18C  F015         	movff	powf@s2,___flmul@a
  3249  001BA4  C18D  F016         	movff	powf@s2+1,___flmul@a+1
  3250  001BA8  C18E  F017         	movff	powf@s2+2,___flmul@a+2
  3251  001BAC  C18F  F018         	movff	powf@s2+3,___flmul@a+3
  3252  001BB0  C154  F011         	movff	_powf$844,___flmul@b
  3253  001BB4  C155  F012         	movff	_powf$844+1,___flmul@b+1
  3254  001BB8  C156  F013         	movff	_powf$844+2,___flmul@b+2
  3255  001BBC  C157  F014         	movff	_powf$844+3,___flmul@b+3
  3256  001BC0  EC7C  F01D         	call	___flmul	;wreg free
  3257  001BC4  C011  F001         	movff	?___flmul,___fladd@b
  3258  001BC8  C012  F002         	movff	?___flmul+1,___fladd@b+1
  3259  001BCC  C013  F003         	movff	?___flmul+2,___fladd@b+2
  3260  001BD0  C014  F004         	movff	?___flmul+3,___fladd@b+3
  3261  001BD4  EC1C  F01B         	call	___fladd	;wreg free
  3262  001BD8  C001  F148         	movff	?___fladd,_powf$845
  3263  001BDC  C002  F149         	movff	?___fladd+1,_powf$845+1
  3264  001BE0  C003  F14A         	movff	?___fladd+2,_powf$845+2
  3265  001BE4  C004  F14B         	movff	?___fladd+3,_powf$845+3
  3266  001BE8  0EB7               	movlw	183
  3267  001BEA  6E05               	movwf	___fladd@a^0,c
  3268  001BEC  0E6D               	movlw	109
  3269  001BEE  6E06               	movwf	(___fladd@a+1)^0,c
  3270  001BF0  0EDB               	movlw	219
  3271  001BF2  6E07               	movwf	(___fladd@a+2)^0,c
  3272  001BF4  0E3E               	movlw	62
  3273  001BF6  6E08               	movwf	(___fladd@a+3)^0,c
  3274  001BF8  C18C  F015         	movff	powf@s2,___flmul@a
  3275  001BFC  C18D  F016         	movff	powf@s2+1,___flmul@a+1
  3276  001C00  C18E  F017         	movff	powf@s2+2,___flmul@a+2
  3277  001C04  C18F  F018         	movff	powf@s2+3,___flmul@a+3
  3278  001C08  C148  F011         	movff	_powf$845,___flmul@b
  3279  001C0C  C149  F012         	movff	_powf$845+1,___flmul@b+1
  3280  001C10  C14A  F013         	movff	_powf$845+2,___flmul@b+2
  3281  001C14  C14B  F014         	movff	_powf$845+3,___flmul@b+3
  3282  001C18  EC7C  F01D         	call	___flmul	;wreg free
  3283  001C1C  C011  F001         	movff	?___flmul,___fladd@b
  3284  001C20  C012  F002         	movff	?___flmul+1,___fladd@b+1
  3285  001C24  C013  F003         	movff	?___flmul+2,___fladd@b+2
  3286  001C28  C014  F004         	movff	?___flmul+3,___fladd@b+3
  3287  001C2C  EC1C  F01B         	call	___fladd	;wreg free
  3288  001C30  C001  F138         	movff	?___fladd,_powf$847
  3289  001C34  C002  F139         	movff	?___fladd+1,_powf$847+1
  3290  001C38  C003  F13A         	movff	?___fladd+2,_powf$847+2
  3291  001C3C  C004  F13B         	movff	?___fladd+3,_powf$847+3
  3292  001C40  0E9A               	movlw	154
  3293  001C42  6E05               	movwf	___fladd@a^0,c
  3294  001C44  0E99               	movlw	153
  3295  001C46  6E06               	movwf	(___fladd@a+1)^0,c
  3296  001C48  0E19               	movlw	25
  3297  001C4A  6E07               	movwf	(___fladd@a+2)^0,c
  3298  001C4C  0E3F               	movlw	63
  3299  001C4E  6E08               	movwf	(___fladd@a+3)^0,c
  3300  001C50  C18C  F015         	movff	powf@s2,___flmul@a
  3301  001C54  C18D  F016         	movff	powf@s2+1,___flmul@a+1
  3302  001C58  C18E  F017         	movff	powf@s2+2,___flmul@a+2
  3303  001C5C  C18F  F018         	movff	powf@s2+3,___flmul@a+3
  3304  001C60  C138  F011         	movff	_powf$847,___flmul@b
  3305  001C64  C139  F012         	movff	_powf$847+1,___flmul@b+1
  3306  001C68  C13A  F013         	movff	_powf$847+2,___flmul@b+2
  3307  001C6C  C13B  F014         	movff	_powf$847+3,___flmul@b+3
  3308  001C70  EC7C  F01D         	call	___flmul	;wreg free
  3309  001C74  C011  F001         	movff	?___flmul,___fladd@b
  3310  001C78  C012  F002         	movff	?___flmul+1,___fladd@b+1
  3311  001C7C  C013  F003         	movff	?___flmul+2,___fladd@b+2
  3312  001C80  C014  F004         	movff	?___flmul+3,___fladd@b+3
  3313  001C84  EC1C  F01B         	call	___fladd	;wreg free
  3314  001C88  C001  F100         	movff	?___fladd,_powf$848
  3315  001C8C  C002  F101         	movff	?___fladd+1,_powf$848+1
  3316  001C90  C003  F102         	movff	?___fladd+2,_powf$848+2
  3317  001C94  C004  F103         	movff	?___fladd+3,_powf$848+3
  3318  001C98  C18C  F015         	movff	powf@s2,___flmul@a
  3319  001C9C  C18D  F016         	movff	powf@s2+1,___flmul@a+1
  3320  001CA0  C18E  F017         	movff	powf@s2+2,___flmul@a+2
  3321  001CA4  C18F  F018         	movff	powf@s2+3,___flmul@a+3
  3322  001CA8  C18C  F011         	movff	powf@s2,___flmul@b
  3323  001CAC  C18D  F012         	movff	powf@s2+1,___flmul@b+1
  3324  001CB0  C18E  F013         	movff	powf@s2+2,___flmul@b+2
  3325  001CB4  C18F  F014         	movff	powf@s2+3,___flmul@b+3
  3326  001CB8  EC7C  F01D         	call	___flmul	;wreg free
  3327  001CBC  C011  F104         	movff	?___flmul,_powf$849
  3328  001CC0  C012  F105         	movff	?___flmul+1,_powf$849+1
  3329  001CC4  C013  F106         	movff	?___flmul+2,_powf$849+2
  3330  001CC8  C014  F107         	movff	?___flmul+3,_powf$849+3
  3331  001CCC  C100  F011         	movff	_powf$848,___flmul@b
  3332  001CD0  C101  F012         	movff	_powf$848+1,___flmul@b+1
  3333  001CD4  C102  F013         	movff	_powf$848+2,___flmul@b+2
  3334  001CD8  C103  F014         	movff	_powf$848+3,___flmul@b+3
  3335  001CDC  C104  F015         	movff	_powf$849,___flmul@a
  3336  001CE0  C105  F016         	movff	_powf$849+1,___flmul@a+1
  3337  001CE4  C106  F017         	movff	_powf$849+2,___flmul@a+2
  3338  001CE8  C107  F018         	movff	_powf$849+3,___flmul@a+3
  3339  001CEC  EC7C  F01D         	call	___flmul	;wreg free
  3340  001CF0  C011  F14C         	movff	?___flmul,powf@r
  3341  001CF4  C012  F14D         	movff	?___flmul+1,powf@r+1
  3342  001CF8  C013  F14E         	movff	?___flmul+2,powf@r+2
  3343  001CFC  C014  F14F         	movff	?___flmul+3,powf@r+3
  3344  001D00  C130  F015         	movff	powf@s_l,___flmul@a
  3345  001D04  C131  F016         	movff	powf@s_l+1,___flmul@a+1
  3346  001D08  C132  F017         	movff	powf@s_l+2,___flmul@a+2
  3347  001D0C  C133  F018         	movff	powf@s_l+3,___flmul@a+3
  3348  001D10  C15C  F005         	movff	powf@s,___fladd@a
  3349  001D14  C15D  F006         	movff	powf@s+1,___fladd@a+1
  3350  001D18  C15E  F007         	movff	powf@s+2,___fladd@a+2
  3351  001D1C  C15F  F008         	movff	powf@s+3,___fladd@a+3
  3352  001D20  C16C  F001         	movff	powf@s_h,___fladd@b
  3353  001D24  C16D  F002         	movff	powf@s_h+1,___fladd@b+1
  3354  001D28  C16E  F003         	movff	powf@s_h+2,___fladd@b+2
  3355  001D2C  C16F  F004         	movff	powf@s_h+3,___fladd@b+3
  3356  001D30  EC1C  F01B         	call	___fladd	;wreg free
  3357  001D34  C001  F011         	movff	?___fladd,___flmul@b
  3358  001D38  C002  F012         	movff	?___fladd+1,___flmul@b+1
  3359  001D3C  C003  F013         	movff	?___fladd+2,___flmul@b+2
  3360  001D40  C004  F014         	movff	?___fladd+3,___flmul@b+3
  3361  001D44  EC7C  F01D         	call	___flmul	;wreg free
  3362  001D48  C011  F158         	movff	?___flmul,_powf$850
  3363  001D4C  C012  F159         	movff	?___flmul+1,_powf$850+1
  3364  001D50  C013  F15A         	movff	?___flmul+2,_powf$850+2
  3365  001D54  C014  F15B         	movff	?___flmul+3,_powf$850+3
  3366  001D58  C14C  F001         	movff	powf@r,___fladd@b
  3367  001D5C  C14D  F002         	movff	powf@r+1,___fladd@b+1
  3368  001D60  C14E  F003         	movff	powf@r+2,___fladd@b+2
  3369  001D64  C14F  F004         	movff	powf@r+3,___fladd@b+3
  3370  001D68  C158  F005         	movff	_powf$850,___fladd@a
  3371  001D6C  C159  F006         	movff	_powf$850+1,___fladd@a+1
  3372  001D70  C15A  F007         	movff	_powf$850+2,___fladd@a+2
  3373  001D74  C15B  F008         	movff	_powf$850+3,___fladd@a+3
  3374  001D78  EC1C  F01B         	call	___fladd	;wreg free
  3375  001D7C  C001  F14C         	movff	?___fladd,powf@r
  3376  001D80  C002  F14D         	movff	?___fladd+1,powf@r+1
  3377  001D84  C003  F14E         	movff	?___fladd+2,powf@r+2
  3378  001D88  C004  F14F         	movff	?___fladd+3,powf@r+3
  3379  001D8C  C16C  F011         	movff	powf@s_h,___flmul@b
  3380  001D90  C16D  F012         	movff	powf@s_h+1,___flmul@b+1
  3381  001D94  C16E  F013         	movff	powf@s_h+2,___flmul@b+2
  3382  001D98  C16F  F014         	movff	powf@s_h+3,___flmul@b+3
  3383  001D9C  C16C  F015         	movff	powf@s_h,___flmul@a
  3384  001DA0  C16D  F016         	movff	powf@s_h+1,___flmul@a+1
  3385  001DA4  C16E  F017         	movff	powf@s_h+2,___flmul@a+2
  3386  001DA8  C16F  F018         	movff	powf@s_h+3,___flmul@a+3
  3387  001DAC  EC7C  F01D         	call	___flmul	;wreg free
  3388  001DB0  C011  F18C         	movff	?___flmul,powf@s2
  3389  001DB4  C012  F18D         	movff	?___flmul+1,powf@s2+1
  3390  001DB8  C013  F18E         	movff	?___flmul+2,powf@s2+2
  3391  001DBC  C014  F18F         	movff	?___flmul+3,powf@s2+3
  3392  001DC0  0E00               	movlw	0
  3393  001DC2  6E05               	movwf	___fladd@a^0,c
  3394  001DC4  0E00               	movlw	0
  3395  001DC6  6E06               	movwf	(___fladd@a+1)^0,c
  3396  001DC8  0E40               	movlw	64
  3397  001DCA  6E07               	movwf	(___fladd@a+2)^0,c
  3398  001DCC  0E40               	movlw	64
  3399  001DCE  6E08               	movwf	(___fladd@a+3)^0,c
  3400  001DD0  C18C  F001         	movff	powf@s2,___fladd@b
  3401  001DD4  C18D  F002         	movff	powf@s2+1,___fladd@b+1
  3402  001DD8  C18E  F003         	movff	powf@s2+2,___fladd@b+2
  3403  001DDC  C18F  F004         	movff	powf@s2+3,___fladd@b+3
  3404  001DE0  EC1C  F01B         	call	___fladd	;wreg free
  3405  001DE4  C001  F158         	movff	?___fladd,_powf$850
  3406  001DE8  C002  F159         	movff	?___fladd+1,_powf$850+1
  3407  001DEC  C003  F15A         	movff	?___fladd+2,_powf$850+2
  3408  001DF0  C004  F15B         	movff	?___fladd+3,_powf$850+3
  3409  001DF4  C158  F001         	movff	_powf$850,___fladd@b
  3410  001DF8  C159  F002         	movff	_powf$850+1,___fladd@b+1
  3411  001DFC  C15A  F003         	movff	_powf$850+2,___fladd@b+2
  3412  001E00  C15B  F004         	movff	_powf$850+3,___fladd@b+3
  3413  001E04  C14C  F005         	movff	powf@r,___fladd@a
  3414  001E08  C14D  F006         	movff	powf@r+1,___fladd@a+1
  3415  001E0C  C14E  F007         	movff	powf@r+2,___fladd@a+2
  3416  001E10  C14F  F008         	movff	powf@r+3,___fladd@a+3
  3417  001E14  EC1C  F01B         	call	___fladd	;wreg free
  3418  001E18  C001  F168         	movff	?___fladd,powf@t_h
  3419  001E1C  C002  F169         	movff	?___fladd+1,powf@t_h+1
  3420  001E20  C003  F16A         	movff	?___fladd+2,powf@t_h+2
  3421  001E24  C004  F16B         	movff	?___fladd+3,powf@t_h+3
  3422  001E28  C168  F1B8         	movff	powf@t_h,powf@__xc8_float_word
  3423  001E2C  C169  F1B9         	movff	powf@t_h+1,powf@__xc8_float_word+1
  3424  001E30  C16A  F1BA         	movff	powf@t_h+2,powf@__xc8_float_word+2
  3425  001E34  C16B  F1BB         	movff	powf@t_h+3,powf@__xc8_float_word+3
  3426  001E38  C1B8  F190         	movff	powf@__xc8_float_word,powf@is
  3427  001E3C  C1B9  F191         	movff	powf@__xc8_float_word+1,powf@is+1
  3428  001E40  C1BA  F192         	movff	powf@__xc8_float_word+2,powf@is+2
  3429  001E44  C1BB  F193         	movff	powf@__xc8_float_word+3,powf@is+3
  3430  001E48  0E00               	movlw	0
  3431  001E4A  0101               	movlb	1	; () banked
  3432  001E4C  1590               	andwf	powf@is& (0+255),w,b
  3433  001E4E  6FB8               	movwf	powf@__xc8_float_word& (0+255),b
  3434  001E50  0EF0               	movlw	240
  3435  001E52  1591               	andwf	(powf@is+1)& (0+255),w,b
  3436  001E54  6FB9               	movwf	(powf@__xc8_float_word+1)& (0+255),b
  3437  001E56  0EFF               	movlw	255
  3438  001E58  1592               	andwf	(powf@is+2)& (0+255),w,b
  3439  001E5A  6FBA               	movwf	(powf@__xc8_float_word+2)& (0+255),b
  3440  001E5C  0EFF               	movlw	255
  3441  001E5E  1593               	andwf	(powf@is+3)& (0+255),w,b
  3442  001E60  6FBB               	movwf	(powf@__xc8_float_word+3)& (0+255),b
  3443  001E62                     
  3444                           ; BSR set to: 1
  3445  001E62  C1B8  F168         	movff	powf@__xc8_float_word,powf@t_h
  3446  001E66  C1B9  F169         	movff	powf@__xc8_float_word+1,powf@t_h+1
  3447  001E6A  C1BA  F16A         	movff	powf@__xc8_float_word+2,powf@t_h+2
  3448  001E6E  C1BB  F16B         	movff	powf@__xc8_float_word+3,powf@t_h+3
  3449  001E72                     
  3450                           ; BSR set to: 1
  3451  001E72  0E00               	movlw	0
  3452  001E74  6E05               	movwf	___fladd@a^0,c
  3453  001E76  0E00               	movlw	0
  3454  001E78  6E06               	movwf	(___fladd@a+1)^0,c
  3455  001E7A  0E40               	movlw	64
  3456  001E7C  6E07               	movwf	(___fladd@a+2)^0,c
  3457  001E7E  0EC0               	movlw	192
  3458  001E80  6E08               	movwf	(___fladd@a+3)^0,c
  3459  001E82  C168  F001         	movff	powf@t_h,___fladd@b
  3460  001E86  C169  F002         	movff	powf@t_h+1,___fladd@b+1
  3461  001E8A  C16A  F003         	movff	powf@t_h+2,___fladd@b+2
  3462  001E8E  C16B  F004         	movff	powf@t_h+3,___fladd@b+3
  3463  001E92  EC1C  F01B         	call	___fladd	;wreg free
  3464  001E96  C001  F13C         	movff	?___fladd,_powf$851
  3465  001E9A  C002  F13D         	movff	?___fladd+1,_powf$851+1
  3466  001E9E  C003  F13E         	movff	?___fladd+2,_powf$851+2
  3467  001EA2  C004  F13F         	movff	?___fladd+3,_powf$851+3
  3468  001EA6  C18C  F02E         	movff	powf@s2,___flsub@a
  3469  001EAA  C18D  F02F         	movff	powf@s2+1,___flsub@a+1
  3470  001EAE  C18E  F030         	movff	powf@s2+2,___flsub@a+2
  3471  001EB2  C18F  F031         	movff	powf@s2+3,___flsub@a+3
  3472  001EB6  C13C  F02A         	movff	_powf$851,___flsub@b
  3473  001EBA  C13D  F02B         	movff	_powf$851+1,___flsub@b+1
  3474  001EBE  C13E  F02C         	movff	_powf$851+2,___flsub@b+2
  3475  001EC2  C13F  F02D         	movff	_powf$851+3,___flsub@b+3
  3476  001EC6  EC27  F026         	call	___flsub	;wreg free
  3477  001ECA  C02A  F140         	movff	?___flsub,_powf$852
  3478  001ECE  C02B  F141         	movff	?___flsub+1,_powf$852+1
  3479  001ED2  C02C  F142         	movff	?___flsub+2,_powf$852+2
  3480  001ED6  C02D  F143         	movff	?___flsub+3,_powf$852+3
  3481  001EDA  C14C  F02A         	movff	powf@r,___flsub@b
  3482  001EDE  C14D  F02B         	movff	powf@r+1,___flsub@b+1
  3483  001EE2  C14E  F02C         	movff	powf@r+2,___flsub@b+2
  3484  001EE6  C14F  F02D         	movff	powf@r+3,___flsub@b+3
  3485  001EEA  C140  F02E         	movff	_powf$852,___flsub@a
  3486  001EEE  C141  F02F         	movff	_powf$852+1,___flsub@a+1
  3487  001EF2  C142  F030         	movff	_powf$852+2,___flsub@a+2
  3488  001EF6  C143  F031         	movff	_powf$852+3,___flsub@a+3
  3489  001EFA  EC27  F026         	call	___flsub	;wreg free
  3490  001EFE  C02A  F134         	movff	?___flsub,powf@t_l
  3491  001F02  C02B  F135         	movff	?___flsub+1,powf@t_l+1
  3492  001F06  C02C  F136         	movff	?___flsub+2,powf@t_l+2
  3493  001F0A  C02D  F137         	movff	?___flsub+3,powf@t_l+3
  3494  001F0E  C16C  F011         	movff	powf@s_h,___flmul@b
  3495  001F12  C16D  F012         	movff	powf@s_h+1,___flmul@b+1
  3496  001F16  C16E  F013         	movff	powf@s_h+2,___flmul@b+2
  3497  001F1A  C16F  F014         	movff	powf@s_h+3,___flmul@b+3
  3498  001F1E  C168  F015         	movff	powf@t_h,___flmul@a
  3499  001F22  C169  F016         	movff	powf@t_h+1,___flmul@a+1
  3500  001F26  C16A  F017         	movff	powf@t_h+2,___flmul@a+2
  3501  001F2A  C16B  F018         	movff	powf@t_h+3,___flmul@a+3
  3502  001F2E  EC7C  F01D         	call	___flmul	;wreg free
  3503  001F32  C011  F174         	movff	?___flmul,powf@u
  3504  001F36  C012  F175         	movff	?___flmul+1,powf@u+1
  3505  001F3A  C013  F176         	movff	?___flmul+2,powf@u+2
  3506  001F3E  C014  F177         	movff	?___flmul+3,powf@u+3
  3507  001F42  C168  F015         	movff	powf@t_h,___flmul@a
  3508  001F46  C169  F016         	movff	powf@t_h+1,___flmul@a+1
  3509  001F4A  C16A  F017         	movff	powf@t_h+2,___flmul@a+2
  3510  001F4E  C16B  F018         	movff	powf@t_h+3,___flmul@a+3
  3511  001F52  C130  F011         	movff	powf@s_l,___flmul@b
  3512  001F56  C131  F012         	movff	powf@s_l+1,___flmul@b+1
  3513  001F5A  C132  F013         	movff	powf@s_l+2,___flmul@b+2
  3514  001F5E  C133  F014         	movff	powf@s_l+3,___flmul@b+3
  3515  001F62  EC7C  F01D         	call	___flmul	;wreg free
  3516  001F66  C011  F001         	movff	?___flmul,___fladd@b
  3517  001F6A  C012  F002         	movff	?___flmul+1,___fladd@b+1
  3518  001F6E  C013  F003         	movff	?___flmul+2,___fladd@b+2
  3519  001F72  C014  F004         	movff	?___flmul+3,___fladd@b+3
  3520  001F76  C15C  F015         	movff	powf@s,___flmul@a
  3521  001F7A  C15D  F016         	movff	powf@s+1,___flmul@a+1
  3522  001F7E  C15E  F017         	movff	powf@s+2,___flmul@a+2
  3523  001F82  C15F  F018         	movff	powf@s+3,___flmul@a+3
  3524  001F86  C134  F011         	movff	powf@t_l,___flmul@b
  3525  001F8A  C135  F012         	movff	powf@t_l+1,___flmul@b+1
  3526  001F8E  C136  F013         	movff	powf@t_l+2,___flmul@b+2
  3527  001F92  C137  F014         	movff	powf@t_l+3,___flmul@b+3
  3528  001F96  EC7C  F01D         	call	___flmul	;wreg free
  3529  001F9A  C011  F005         	movff	?___flmul,___fladd@a
  3530  001F9E  C012  F006         	movff	?___flmul+1,___fladd@a+1
  3531  001FA2  C013  F007         	movff	?___flmul+2,___fladd@a+2
  3532  001FA6  C014  F008         	movff	?___flmul+3,___fladd@a+3
  3533  001FAA  EC1C  F01B         	call	___fladd	;wreg free
  3534  001FAE  C001  F178         	movff	?___fladd,powf@v
  3535  001FB2  C002  F179         	movff	?___fladd+1,powf@v+1
  3536  001FB6  C003  F17A         	movff	?___fladd+2,powf@v+2
  3537  001FBA  C004  F17B         	movff	?___fladd+3,powf@v+3
  3538  001FBE  C174  F001         	movff	powf@u,___fladd@b
  3539  001FC2  C175  F002         	movff	powf@u+1,___fladd@b+1
  3540  001FC6  C176  F003         	movff	powf@u+2,___fladd@b+2
  3541  001FCA  C177  F004         	movff	powf@u+3,___fladd@b+3
  3542  001FCE  C178  F005         	movff	powf@v,___fladd@a
  3543  001FD2  C179  F006         	movff	powf@v+1,___fladd@a+1
  3544  001FD6  C17A  F007         	movff	powf@v+2,___fladd@a+2
  3545  001FDA  C17B  F008         	movff	powf@v+3,___fladd@a+3
  3546  001FDE  EC1C  F01B         	call	___fladd	;wreg free
  3547  001FE2  C001  F19C         	movff	?___fladd,powf@p_h
  3548  001FE6  C002  F19D         	movff	?___fladd+1,powf@p_h+1
  3549  001FEA  C003  F19E         	movff	?___fladd+2,powf@p_h+2
  3550  001FEE  C004  F19F         	movff	?___fladd+3,powf@p_h+3
  3551  001FF2  C19C  F1B8         	movff	powf@p_h,powf@__xc8_float_word
  3552  001FF6  C19D  F1B9         	movff	powf@p_h+1,powf@__xc8_float_word+1
  3553  001FFA  C19E  F1BA         	movff	powf@p_h+2,powf@__xc8_float_word+2
  3554  001FFE  C19F  F1BB         	movff	powf@p_h+3,powf@__xc8_float_word+3
  3555  002002  C1B8  F190         	movff	powf@__xc8_float_word,powf@is
  3556  002006  C1B9  F191         	movff	powf@__xc8_float_word+1,powf@is+1
  3557  00200A  C1BA  F192         	movff	powf@__xc8_float_word+2,powf@is+2
  3558  00200E  C1BB  F193         	movff	powf@__xc8_float_word+3,powf@is+3
  3559  002012  0E00               	movlw	0
  3560  002014  0101               	movlb	1	; () banked
  3561  002016  1590               	andwf	powf@is& (0+255),w,b
  3562  002018  6FB8               	movwf	powf@__xc8_float_word& (0+255),b
  3563  00201A  0EF0               	movlw	240
  3564  00201C  1591               	andwf	(powf@is+1)& (0+255),w,b
  3565  00201E  6FB9               	movwf	(powf@__xc8_float_word+1)& (0+255),b
  3566  002020  0EFF               	movlw	255
  3567  002022  1592               	andwf	(powf@is+2)& (0+255),w,b
  3568  002024  6FBA               	movwf	(powf@__xc8_float_word+2)& (0+255),b
  3569  002026  0EFF               	movlw	255
  3570  002028  1593               	andwf	(powf@is+3)& (0+255),w,b
  3571  00202A  6FBB               	movwf	(powf@__xc8_float_word+3)& (0+255),b
  3572  00202C                     
  3573                           ; BSR set to: 1
  3574  00202C  C1B8  F19C         	movff	powf@__xc8_float_word,powf@p_h
  3575  002030  C1B9  F19D         	movff	powf@__xc8_float_word+1,powf@p_h+1
  3576  002034  C1BA  F19E         	movff	powf@__xc8_float_word+2,powf@p_h+2
  3577  002038  C1BB  F19F         	movff	powf@__xc8_float_word+3,powf@p_h+3
  3578  00203C                     
  3579                           ; BSR set to: 1
  3580  00203C  C174  F02E         	movff	powf@u,___flsub@a
  3581  002040  C175  F02F         	movff	powf@u+1,___flsub@a+1
  3582  002044  C176  F030         	movff	powf@u+2,___flsub@a+2
  3583  002048  C177  F031         	movff	powf@u+3,___flsub@a+3
  3584  00204C  C19C  F02A         	movff	powf@p_h,___flsub@b
  3585  002050  C19D  F02B         	movff	powf@p_h+1,___flsub@b+1
  3586  002054  C19E  F02C         	movff	powf@p_h+2,___flsub@b+2
  3587  002058  C19F  F02D         	movff	powf@p_h+3,___flsub@b+3
  3588  00205C  EC27  F026         	call	___flsub	;wreg free
  3589  002060  C02A  F194         	movff	?___flsub,_powf$846
  3590  002064  C02B  F195         	movff	?___flsub+1,_powf$846+1
  3591  002068  C02C  F196         	movff	?___flsub+2,_powf$846+2
  3592  00206C  C02D  F197         	movff	?___flsub+3,_powf$846+3
  3593  002070  C178  F02A         	movff	powf@v,___flsub@b
  3594  002074  C179  F02B         	movff	powf@v+1,___flsub@b+1
  3595  002078  C17A  F02C         	movff	powf@v+2,___flsub@b+2
  3596  00207C  C17B  F02D         	movff	powf@v+3,___flsub@b+3
  3597  002080  C194  F02E         	movff	_powf$846,___flsub@a
  3598  002084  C195  F02F         	movff	_powf$846+1,___flsub@a+1
  3599  002088  C196  F030         	movff	_powf$846+2,___flsub@a+2
  3600  00208C  C197  F031         	movff	_powf$846+3,___flsub@a+3
  3601  002090  EC27  F026         	call	___flsub	;wreg free
  3602  002094  C02A  F164         	movff	?___flsub,powf@p_l
  3603  002098  C02B  F165         	movff	?___flsub+1,powf@p_l+1
  3604  00209C  C02C  F166         	movff	?___flsub+2,powf@p_l+2
  3605  0020A0  C02D  F167         	movff	?___flsub+3,powf@p_l+3
  3606  0020A4  C19C  F011         	movff	powf@p_h,___flmul@b
  3607  0020A8  C19D  F012         	movff	powf@p_h+1,___flmul@b+1
  3608  0020AC  C19E  F013         	movff	powf@p_h+2,___flmul@b+2
  3609  0020B0  C19F  F014         	movff	powf@p_h+3,___flmul@b+3
  3610  0020B4  0E00               	movlw	0
  3611  0020B6  6E15               	movwf	___flmul@a^0,c
  3612  0020B8  0E40               	movlw	64
  3613  0020BA  6E16               	movwf	(___flmul@a+1)^0,c
  3614  0020BC  0E76               	movlw	118
  3615  0020BE  6E17               	movwf	(___flmul@a+2)^0,c
  3616  0020C0  0E3F               	movlw	63
  3617  0020C2  6E18               	movwf	(___flmul@a+3)^0,c
  3618  0020C4  EC7C  F01D         	call	___flmul	;wreg free
  3619  0020C8  C011  F120         	movff	?___flmul,powf@z_h
  3620  0020CC  C012  F121         	movff	?___flmul+1,powf@z_h+1
  3621  0020D0  C013  F122         	movff	?___flmul+2,powf@z_h+2
  3622  0020D4  C014  F123         	movff	?___flmul+3,powf@z_h+3
  3623  0020D8  0E4F               	movlw	79
  3624  0020DA  6E15               	movwf	___flmul@a^0,c
  3625  0020DC  0E38               	movlw	56
  3626  0020DE  6E16               	movwf	(___flmul@a+1)^0,c
  3627  0020E0  0E76               	movlw	118
  3628  0020E2  6E17               	movwf	(___flmul@a+2)^0,c
  3629  0020E4  0E3F               	movlw	63
  3630  0020E6  6E18               	movwf	(___flmul@a+3)^0,c
  3631  0020E8  C164  F011         	movff	powf@p_l,___flmul@b
  3632  0020EC  C165  F012         	movff	powf@p_l+1,___flmul@b+1
  3633  0020F0  C166  F013         	movff	powf@p_l+2,___flmul@b+2
  3634  0020F4  C167  F014         	movff	powf@p_l+3,___flmul@b+3
  3635  0020F8  EC7C  F01D         	call	___flmul	;wreg free
  3636  0020FC  C011  F005         	movff	?___flmul,___fladd@a
  3637  002100  C012  F006         	movff	?___flmul+1,___fladd@a+1
  3638  002104  C013  F007         	movff	?___flmul+2,___fladd@a+2
  3639  002108  C014  F008         	movff	?___flmul+3,___fladd@a+3
  3640  00210C  0EC6               	movlw	198
  3641  00210E  6E15               	movwf	___flmul@a^0,c
  3642  002110  0E23               	movlw	35
  3643  002112  6E16               	movwf	(___flmul@a+1)^0,c
  3644  002114  0EF6               	movlw	246
  3645  002116  6E17               	movwf	(___flmul@a+2)^0,c
  3646  002118  0EB8               	movlw	184
  3647  00211A  6E18               	movwf	(___flmul@a+3)^0,c
  3648  00211C  C19C  F011         	movff	powf@p_h,___flmul@b
  3649  002120  C19D  F012         	movff	powf@p_h+1,___flmul@b+1
  3650  002124  C19E  F013         	movff	powf@p_h+2,___flmul@b+2
  3651  002128  C19F  F014         	movff	powf@p_h+3,___flmul@b+3
  3652  00212C  EC7C  F01D         	call	___flmul	;wreg free
  3653  002130  C011  F001         	movff	?___flmul,___fladd@b
  3654  002134  C012  F002         	movff	?___flmul+1,___fladd@b+1
  3655  002138  C013  F003         	movff	?___flmul+2,___fladd@b+2
  3656  00213C  C014  F004         	movff	?___flmul+3,___fladd@b+3
  3657  002140  EC1C  F01B         	call	___fladd	;wreg free
  3658  002144  C001  F158         	movff	?___fladd,_powf$850
  3659  002148  C002  F159         	movff	?___fladd+1,_powf$850+1
  3660  00214C  C003  F15A         	movff	?___fladd+2,_powf$850+2
  3661  002150  C004  F15B         	movff	?___fladd+3,_powf$850+3
  3662  002154  C158  F001         	movff	_powf$850,___fladd@b
  3663  002158  C159  F002         	movff	_powf$850+1,___fladd@b+1
  3664  00215C  C15A  F003         	movff	_powf$850+2,___fladd@b+2
  3665  002160  C15B  F004         	movff	_powf$850+3,___fladd@b+3
  3666  002164  C1A0  F04B         	movff	powf@k,??_powf
  3667  002168  C1A1  F04C         	movff	powf@k+1,??_powf+1
  3668  00216C  90D8               	bcf	status,0,c
  3669  00216E  364B               	rlcf	??_powf^0,f,c
  3670  002170  364C               	rlcf	(??_powf+1)^0,f,c
  3671  002172  90D8               	bcf	status,0,c
  3672  002174  364B               	rlcf	??_powf^0,f,c
  3673  002176  364C               	rlcf	(??_powf+1)^0,f,c
  3674  002178  0E01               	movlw	low _dp_l
  3675  00217A  244B               	addwf	??_powf^0,w,c
  3676  00217C  6EF6               	movwf	tblptrl,c
  3677  00217E  0E08               	movlw	high _dp_l
  3678  002180  204C               	addwfc	(??_powf+1)^0,w,c
  3679  002182  6EF7               	movwf	tblptrh,c
  3680  002184                     	if	0	;There are less than 3 active tblptr bytes
  3681  002184                     	endif
  3682  002184  0009               	tblrd		*+
  3683  002186  CFF5 F005          	movff	tablat,___fladd@a
  3684  00218A  0009               	tblrd		*+
  3685  00218C  CFF5 F006          	movff	tablat,___fladd@a+1
  3686  002190  0009               	tblrd		*+
  3687  002192  CFF5 F007          	movff	tablat,___fladd@a+2
  3688  002196  000A               	tblrd		*-
  3689  002198  CFF5 F008          	movff	tablat,___fladd@a+3
  3690  00219C  EC1C  F01B         	call	___fladd	;wreg free
  3691  0021A0  C001  F124         	movff	?___fladd,powf@z_l
  3692  0021A4  C002  F125         	movff	?___fladd+1,powf@z_l+1
  3693  0021A8  C003  F126         	movff	?___fladd+2,powf@z_l+2
  3694  0021AC  C004  F127         	movff	?___fladd+3,powf@z_l+3
  3695  0021B0  C17C  F001         	movff	powf@n,___xxtofl@val
  3696  0021B4  C17D  F002         	movff	powf@n+1,___xxtofl@val+1
  3697  0021B8  C17E  F003         	movff	powf@n+2,___xxtofl@val+2
  3698  0021BC  C17F  F004         	movff	powf@n+3,___xxtofl@val+3
  3699  0021C0  0E01               	movlw	1
  3700  0021C2  EC59  F023         	call	___xxtofl
  3701  0021C6  C001  F1B0         	movff	?___xxtofl,powf@t
  3702  0021CA  C002  F1B1         	movff	?___xxtofl+1,powf@t+1
  3703  0021CE  C003  F1B2         	movff	?___xxtofl+2,powf@t+2
  3704  0021D2  C004  F1B3         	movff	?___xxtofl+3,powf@t+3
  3705  0021D6  C124  F005         	movff	powf@z_l,___fladd@a
  3706  0021DA  C125  F006         	movff	powf@z_l+1,___fladd@a+1
  3707  0021DE  C126  F007         	movff	powf@z_l+2,___fladd@a+2
  3708  0021E2  C127  F008         	movff	powf@z_l+3,___fladd@a+3
  3709  0021E6  C120  F001         	movff	powf@z_h,___fladd@b
  3710  0021EA  C121  F002         	movff	powf@z_h+1,___fladd@b+1
  3711  0021EE  C122  F003         	movff	powf@z_h+2,___fladd@b+2
  3712  0021F2  C123  F004         	movff	powf@z_h+3,___fladd@b+3
  3713  0021F6  EC1C  F01B         	call	___fladd	;wreg free
  3714  0021FA  C001  F158         	movff	?___fladd,_powf$850
  3715  0021FE  C002  F159         	movff	?___fladd+1,_powf$850+1
  3716  002202  C003  F15A         	movff	?___fladd+2,_powf$850+2
  3717  002206  C004  F15B         	movff	?___fladd+3,_powf$850+3
  3718  00220A  C1A0  F04B         	movff	powf@k,??_powf
  3719  00220E  C1A1  F04C         	movff	powf@k+1,??_powf+1
  3720  002212  90D8               	bcf	status,0,c
  3721  002214  364B               	rlcf	??_powf^0,f,c
  3722  002216  364C               	rlcf	(??_powf+1)^0,f,c
  3723  002218  90D8               	bcf	status,0,c
  3724  00221A  364B               	rlcf	??_powf^0,f,c
  3725  00221C  364C               	rlcf	(??_powf+1)^0,f,c
  3726  00221E  0E09               	movlw	low _dp_h
  3727  002220  244B               	addwf	??_powf^0,w,c
  3728  002222  6EF6               	movwf	tblptrl,c
  3729  002224  0E08               	movlw	high _dp_h
  3730  002226  204C               	addwfc	(??_powf+1)^0,w,c
  3731  002228  6EF7               	movwf	tblptrh,c
  3732  00222A                     	if	0	;There are less than 3 active tblptr bytes
  3733  00222A                     	endif
  3734  00222A  0009               	tblrd		*+
  3735  00222C  CFF5 F005          	movff	tablat,___fladd@a
  3736  002230  0009               	tblrd		*+
  3737  002232  CFF5 F006          	movff	tablat,___fladd@a+1
  3738  002236  0009               	tblrd		*+
  3739  002238  CFF5 F007          	movff	tablat,___fladd@a+2
  3740  00223C  000A               	tblrd		*-
  3741  00223E  CFF5 F008          	movff	tablat,___fladd@a+3
  3742  002242  C158  F001         	movff	_powf$850,___fladd@b
  3743  002246  C159  F002         	movff	_powf$850+1,___fladd@b+1
  3744  00224A  C15A  F003         	movff	_powf$850+2,___fladd@b+2
  3745  00224E  C15B  F004         	movff	_powf$850+3,___fladd@b+3
  3746  002252  EC1C  F01B         	call	___fladd	;wreg free
  3747  002256  C001  F108         	movff	?___fladd,_powf$853
  3748  00225A  C002  F109         	movff	?___fladd+1,_powf$853+1
  3749  00225E  C003  F10A         	movff	?___fladd+2,_powf$853+2
  3750  002262  C004  F10B         	movff	?___fladd+3,_powf$853+3
  3751  002266  C108  F001         	movff	_powf$853,___fladd@b
  3752  00226A  C109  F002         	movff	_powf$853+1,___fladd@b+1
  3753  00226E  C10A  F003         	movff	_powf$853+2,___fladd@b+2
  3754  002272  C10B  F004         	movff	_powf$853+3,___fladd@b+3
  3755  002276  C1B0  F005         	movff	powf@t,___fladd@a
  3756  00227A  C1B1  F006         	movff	powf@t+1,___fladd@a+1
  3757  00227E  C1B2  F007         	movff	powf@t+2,___fladd@a+2
  3758  002282  C1B3  F008         	movff	powf@t+3,___fladd@a+3
  3759  002286  EC1C  F01B         	call	___fladd	;wreg free
  3760  00228A  C001  F180         	movff	?___fladd,powf@t1
  3761  00228E  C002  F181         	movff	?___fladd+1,powf@t1+1
  3762  002292  C003  F182         	movff	?___fladd+2,powf@t1+2
  3763  002296  C004  F183         	movff	?___fladd+3,powf@t1+3
  3764  00229A  C180  F1B8         	movff	powf@t1,powf@__xc8_float_word
  3765  00229E  C181  F1B9         	movff	powf@t1+1,powf@__xc8_float_word+1
  3766  0022A2  C182  F1BA         	movff	powf@t1+2,powf@__xc8_float_word+2
  3767  0022A6  C183  F1BB         	movff	powf@t1+3,powf@__xc8_float_word+3
  3768  0022AA  C1B8  F190         	movff	powf@__xc8_float_word,powf@is
  3769  0022AE  C1B9  F191         	movff	powf@__xc8_float_word+1,powf@is+1
  3770  0022B2  C1BA  F192         	movff	powf@__xc8_float_word+2,powf@is+2
  3771  0022B6  C1BB  F193         	movff	powf@__xc8_float_word+3,powf@is+3
  3772  0022BA  0E00               	movlw	0
  3773  0022BC  0101               	movlb	1	; () banked
  3774  0022BE  1590               	andwf	powf@is& (0+255),w,b
  3775  0022C0  6FB8               	movwf	powf@__xc8_float_word& (0+255),b
  3776  0022C2  0EF0               	movlw	240
  3777  0022C4  1591               	andwf	(powf@is+1)& (0+255),w,b
  3778  0022C6  6FB9               	movwf	(powf@__xc8_float_word+1)& (0+255),b
  3779  0022C8  0EFF               	movlw	255
  3780  0022CA  1592               	andwf	(powf@is+2)& (0+255),w,b
  3781  0022CC  6FBA               	movwf	(powf@__xc8_float_word+2)& (0+255),b
  3782  0022CE  0EFF               	movlw	255
  3783  0022D0  1593               	andwf	(powf@is+3)& (0+255),w,b
  3784  0022D2  6FBB               	movwf	(powf@__xc8_float_word+3)& (0+255),b
  3785  0022D4                     
  3786                           ; BSR set to: 1
  3787  0022D4  C1B8  F180         	movff	powf@__xc8_float_word,powf@t1
  3788  0022D8  C1B9  F181         	movff	powf@__xc8_float_word+1,powf@t1+1
  3789  0022DC  C1BA  F182         	movff	powf@__xc8_float_word+2,powf@t1+2
  3790  0022E0  C1BB  F183         	movff	powf@__xc8_float_word+3,powf@t1+3
  3791  0022E4                     
  3792                           ; BSR set to: 1
  3793  0022E4  C1B0  F02E         	movff	powf@t,___flsub@a
  3794  0022E8  C1B1  F02F         	movff	powf@t+1,___flsub@a+1
  3795  0022EC  C1B2  F030         	movff	powf@t+2,___flsub@a+2
  3796  0022F0  C1B3  F031         	movff	powf@t+3,___flsub@a+3
  3797  0022F4  C180  F02A         	movff	powf@t1,___flsub@b
  3798  0022F8  C181  F02B         	movff	powf@t1+1,___flsub@b+1
  3799  0022FC  C182  F02C         	movff	powf@t1+2,___flsub@b+2
  3800  002300  C183  F02D         	movff	powf@t1+3,___flsub@b+3
  3801  002304  EC27  F026         	call	___flsub	;wreg free
  3802  002308  C02A  F194         	movff	?___flsub,_powf$846
  3803  00230C  C02B  F195         	movff	?___flsub+1,_powf$846+1
  3804  002310  C02C  F196         	movff	?___flsub+2,_powf$846+2
  3805  002314  C02D  F197         	movff	?___flsub+3,_powf$846+3
  3806  002318  C1A0  F04B         	movff	powf@k,??_powf
  3807  00231C  C1A1  F04C         	movff	powf@k+1,??_powf+1
  3808  002320  90D8               	bcf	status,0,c
  3809  002322  364B               	rlcf	??_powf^0,f,c
  3810  002324  364C               	rlcf	(??_powf+1)^0,f,c
  3811  002326  90D8               	bcf	status,0,c
  3812  002328  364B               	rlcf	??_powf^0,f,c
  3813  00232A  364C               	rlcf	(??_powf+1)^0,f,c
  3814  00232C  0E09               	movlw	low _dp_h
  3815  00232E  244B               	addwf	??_powf^0,w,c
  3816  002330  6EF6               	movwf	tblptrl,c
  3817  002332  0E08               	movlw	high _dp_h
  3818  002334  204C               	addwfc	(??_powf+1)^0,w,c
  3819  002336  6EF7               	movwf	tblptrh,c
  3820  002338                     	if	0	;There are less than 3 active tblptr bytes
  3821  002338                     	endif
  3822  002338  0009               	tblrd		*+
  3823  00233A  CFF5 F02E          	movff	tablat,___flsub@a
  3824  00233E  0009               	tblrd		*+
  3825  002340  CFF5 F02F          	movff	tablat,___flsub@a+1
  3826  002344  0009               	tblrd		*+
  3827  002346  CFF5 F030          	movff	tablat,___flsub@a+2
  3828  00234A  000A               	tblrd		*-
  3829  00234C  CFF5 F031          	movff	tablat,___flsub@a+3
  3830  002350  C194  F02A         	movff	_powf$846,___flsub@b
  3831  002354  C195  F02B         	movff	_powf$846+1,___flsub@b+1
  3832  002358  C196  F02C         	movff	_powf$846+2,___flsub@b+2
  3833  00235C  C197  F02D         	movff	_powf$846+3,___flsub@b+3
  3834  002360  EC27  F026         	call	___flsub	;wreg free
  3835  002364  C02A  F140         	movff	?___flsub,_powf$852
  3836  002368  C02B  F141         	movff	?___flsub+1,_powf$852+1
  3837  00236C  C02C  F142         	movff	?___flsub+2,_powf$852+2
  3838  002370  C02D  F143         	movff	?___flsub+3,_powf$852+3
  3839  002374  C120  F02E         	movff	powf@z_h,___flsub@a
  3840  002378  C121  F02F         	movff	powf@z_h+1,___flsub@a+1
  3841  00237C  C122  F030         	movff	powf@z_h+2,___flsub@a+2
  3842  002380  C123  F031         	movff	powf@z_h+3,___flsub@a+3
  3843  002384  C140  F02A         	movff	_powf$852,___flsub@b
  3844  002388  C141  F02B         	movff	_powf$852+1,___flsub@b+1
  3845  00238C  C142  F02C         	movff	_powf$852+2,___flsub@b+2
  3846  002390  C143  F02D         	movff	_powf$852+3,___flsub@b+3
  3847  002394  EC27  F026         	call	___flsub	;wreg free
  3848  002398  C02A  F10C         	movff	?___flsub,_powf$854
  3849  00239C  C02B  F10D         	movff	?___flsub+1,_powf$854+1
  3850  0023A0  C02C  F10E         	movff	?___flsub+2,_powf$854+2
  3851  0023A4  C02D  F10F         	movff	?___flsub+3,_powf$854+3
  3852  0023A8  C124  F02A         	movff	powf@z_l,___flsub@b
  3853  0023AC  C125  F02B         	movff	powf@z_l+1,___flsub@b+1
  3854  0023B0  C126  F02C         	movff	powf@z_l+2,___flsub@b+2
  3855  0023B4  C127  F02D         	movff	powf@z_l+3,___flsub@b+3
  3856  0023B8  C10C  F02E         	movff	_powf$854,___flsub@a
  3857  0023BC  C10D  F02F         	movff	_powf$854+1,___flsub@a+1
  3858  0023C0  C10E  F030         	movff	_powf$854+2,___flsub@a+2
  3859  0023C4  C10F  F031         	movff	_powf$854+3,___flsub@a+3
  3860  0023C8  EC27  F026         	call	___flsub	;wreg free
  3861  0023CC  C02A  F11C         	movff	?___flsub,powf@t2
  3862  0023D0  C02B  F11D         	movff	?___flsub+1,powf@t2+1
  3863  0023D4  C02C  F11E         	movff	?___flsub+2,powf@t2+2
  3864  0023D8  C02D  F11F         	movff	?___flsub+3,powf@t2+3
  3865  0023DC                     l3296:
  3866  0023DC  C088  F1B8         	movff	powf@y,powf@__xc8_float_word
  3867  0023E0  C089  F1B9         	movff	powf@y+1,powf@__xc8_float_word+1
  3868  0023E4  C08A  F1BA         	movff	powf@y+2,powf@__xc8_float_word+2
  3869  0023E8  C08B  F1BB         	movff	powf@y+3,powf@__xc8_float_word+3
  3870  0023EC  C1B8  F190         	movff	powf@__xc8_float_word,powf@is
  3871  0023F0  C1B9  F191         	movff	powf@__xc8_float_word+1,powf@is+1
  3872  0023F4  C1BA  F192         	movff	powf@__xc8_float_word+2,powf@is+2
  3873  0023F8  C1BB  F193         	movff	powf@__xc8_float_word+3,powf@is+3
  3874  0023FC  0E00               	movlw	0
  3875  0023FE  0101               	movlb	1	; () banked
  3876  002400  1590               	andwf	powf@is& (0+255),w,b
  3877  002402  6FB8               	movwf	powf@__xc8_float_word& (0+255),b
  3878  002404  0EF0               	movlw	240
  3879  002406  1591               	andwf	(powf@is+1)& (0+255),w,b
  3880  002408  6FB9               	movwf	(powf@__xc8_float_word+1)& (0+255),b
  3881  00240A  0EFF               	movlw	255
  3882  00240C  1592               	andwf	(powf@is+2)& (0+255),w,b
  3883  00240E  6FBA               	movwf	(powf@__xc8_float_word+2)& (0+255),b
  3884  002410  0EFF               	movlw	255
  3885  002412  1593               	andwf	(powf@is+3)& (0+255),w,b
  3886  002414  6FBB               	movwf	(powf@__xc8_float_word+3)& (0+255),b
  3887  002416                     
  3888                           ; BSR set to: 1
  3889  002416  C1B8  F128         	movff	powf@__xc8_float_word,powf@y1
  3890  00241A  C1B9  F129         	movff	powf@__xc8_float_word+1,powf@y1+1
  3891  00241E  C1BA  F12A         	movff	powf@__xc8_float_word+2,powf@y1+2
  3892  002422  C1BB  F12B         	movff	powf@__xc8_float_word+3,powf@y1+3
  3893  002426                     
  3894                           ; BSR set to: 1
  3895  002426  C180  F015         	movff	powf@t1,___flmul@a
  3896  00242A  C181  F016         	movff	powf@t1+1,___flmul@a+1
  3897  00242E  C182  F017         	movff	powf@t1+2,___flmul@a+2
  3898  002432  C183  F018         	movff	powf@t1+3,___flmul@a+3
  3899  002436  C128  F02E         	movff	powf@y1,___flsub@a
  3900  00243A  C129  F02F         	movff	powf@y1+1,___flsub@a+1
  3901  00243E  C12A  F030         	movff	powf@y1+2,___flsub@a+2
  3902  002442  C12B  F031         	movff	powf@y1+3,___flsub@a+3
  3903  002446  C088  F02A         	movff	powf@y,___flsub@b
  3904  00244A  C089  F02B         	movff	powf@y+1,___flsub@b+1
  3905  00244E  C08A  F02C         	movff	powf@y+2,___flsub@b+2
  3906  002452  C08B  F02D         	movff	powf@y+3,___flsub@b+3
  3907  002456  EC27  F026         	call	___flsub	;wreg free
  3908  00245A  C02A  F011         	movff	?___flsub,___flmul@b
  3909  00245E  C02B  F012         	movff	?___flsub+1,___flmul@b+1
  3910  002462  C02C  F013         	movff	?___flsub+2,___flmul@b+2
  3911  002466  C02D  F014         	movff	?___flsub+3,___flmul@b+3
  3912  00246A  EC7C  F01D         	call	___flmul	;wreg free
  3913  00246E  C011  F110         	movff	?___flmul,_powf$855
  3914  002472  C012  F111         	movff	?___flmul+1,_powf$855+1
  3915  002476  C013  F112         	movff	?___flmul+2,_powf$855+2
  3916  00247A  C014  F113         	movff	?___flmul+3,_powf$855+3
  3917  00247E  C110  F001         	movff	_powf$855,___fladd@b
  3918  002482  C111  F002         	movff	_powf$855+1,___fladd@b+1
  3919  002486  C112  F003         	movff	_powf$855+2,___fladd@b+2
  3920  00248A  C113  F004         	movff	_powf$855+3,___fladd@b+3
  3921  00248E  C11C  F015         	movff	powf@t2,___flmul@a
  3922  002492  C11D  F016         	movff	powf@t2+1,___flmul@a+1
  3923  002496  C11E  F017         	movff	powf@t2+2,___flmul@a+2
  3924  00249A  C11F  F018         	movff	powf@t2+3,___flmul@a+3
  3925  00249E  C088  F011         	movff	powf@y,___flmul@b
  3926  0024A2  C089  F012         	movff	powf@y+1,___flmul@b+1
  3927  0024A6  C08A  F013         	movff	powf@y+2,___flmul@b+2
  3928  0024AA  C08B  F014         	movff	powf@y+3,___flmul@b+3
  3929  0024AE  EC7C  F01D         	call	___flmul	;wreg free
  3930  0024B2  C011  F005         	movff	?___flmul,___fladd@a
  3931  0024B6  C012  F006         	movff	?___flmul+1,___fladd@a+1
  3932  0024BA  C013  F007         	movff	?___flmul+2,___fladd@a+2
  3933  0024BE  C014  F008         	movff	?___flmul+3,___fladd@a+3
  3934  0024C2  EC1C  F01B         	call	___fladd	;wreg free
  3935  0024C6  C001  F164         	movff	?___fladd,powf@p_l
  3936  0024CA  C002  F165         	movff	?___fladd+1,powf@p_l+1
  3937  0024CE  C003  F166         	movff	?___fladd+2,powf@p_l+2
  3938  0024D2  C004  F167         	movff	?___fladd+3,powf@p_l+3
  3939  0024D6  C128  F011         	movff	powf@y1,___flmul@b
  3940  0024DA  C129  F012         	movff	powf@y1+1,___flmul@b+1
  3941  0024DE  C12A  F013         	movff	powf@y1+2,___flmul@b+2
  3942  0024E2  C12B  F014         	movff	powf@y1+3,___flmul@b+3
  3943  0024E6  C180  F015         	movff	powf@t1,___flmul@a
  3944  0024EA  C181  F016         	movff	powf@t1+1,___flmul@a+1
  3945  0024EE  C182  F017         	movff	powf@t1+2,___flmul@a+2
  3946  0024F2  C183  F018         	movff	powf@t1+3,___flmul@a+3
  3947  0024F6  EC7C  F01D         	call	___flmul	;wreg free
  3948  0024FA  C011  F19C         	movff	?___flmul,powf@p_h
  3949  0024FE  C012  F19D         	movff	?___flmul+1,powf@p_h+1
  3950  002502  C013  F19E         	movff	?___flmul+2,powf@p_h+2
  3951  002506  C014  F19F         	movff	?___flmul+3,powf@p_h+3
  3952  00250A  C164  F001         	movff	powf@p_l,___fladd@b
  3953  00250E  C165  F002         	movff	powf@p_l+1,___fladd@b+1
  3954  002512  C166  F003         	movff	powf@p_l+2,___fladd@b+2
  3955  002516  C167  F004         	movff	powf@p_l+3,___fladd@b+3
  3956  00251A  C19C  F005         	movff	powf@p_h,___fladd@a
  3957  00251E  C19D  F006         	movff	powf@p_h+1,___fladd@a+1
  3958  002522  C19E  F007         	movff	powf@p_h+2,___fladd@a+2
  3959  002526  C19F  F008         	movff	powf@p_h+3,___fladd@a+3
  3960  00252A  EC1C  F01B         	call	___fladd	;wreg free
  3961  00252E  C001  F1B4         	movff	?___fladd,powf@z
  3962  002532  C002  F1B5         	movff	?___fladd+1,powf@z+1
  3963  002536  C003  F1B6         	movff	?___fladd+2,powf@z+2
  3964  00253A  C004  F1B7         	movff	?___fladd+3,powf@z+3
  3965  00253E  C1B4  F1B8         	movff	powf@z,powf@__xc8_float_word
  3966  002542  C1B5  F1B9         	movff	powf@z+1,powf@__xc8_float_word+1
  3967  002546  C1B6  F1BA         	movff	powf@z+2,powf@__xc8_float_word+2
  3968  00254A  C1B7  F1BB         	movff	powf@z+3,powf@__xc8_float_word+3
  3969  00254E  C1B8  F1AC         	movff	powf@__xc8_float_word,powf@j
  3970  002552  C1B9  F1AD         	movff	powf@__xc8_float_word+1,powf@j+1
  3971  002556  C1BA  F1AE         	movff	powf@__xc8_float_word+2,powf@j+2
  3972  00255A  C1BB  F1AF         	movff	powf@__xc8_float_word+3,powf@j+3
  3973  00255E  0101               	movlb	1	; () banked
  3974  002560  BFAF               	btfsc	(powf@j+3)& (0+255),7,b
  3975  002562  EFBF  F012         	goto	u3621
  3976  002566  05AC               	decf	powf@j& (0+255),w,b
  3977  002568  0E00               	movlw	0
  3978  00256A  59AD               	subwfb	(powf@j+1)& (0+255),w,b
  3979  00256C  0E00               	movlw	0
  3980  00256E  59AE               	subwfb	(powf@j+2)& (0+255),w,b
  3981  002570  0E43               	movlw	67
  3982  002572  59AF               	subwfb	(powf@j+3)& (0+255),w,b
  3983  002574  A0D8               	btfss	status,0,c
  3984  002576  EFBF  F012         	goto	u3621
  3985  00257A  EFC1  F012         	goto	u3620
  3986  00257E                     u3621:
  3987  00257E  EFF7  F012         	goto	l3324
  3988  002582                     u3620:
  3989  002582                     
  3990                           ; BSR set to: 1
  3991  002582  0ECA               	movlw	202
  3992  002584  6E15               	movwf	___flmul@a^0,c
  3993  002586  0EF2               	movlw	242
  3994  002588  6E16               	movwf	(___flmul@a+1)^0,c
  3995  00258A  0E49               	movlw	73
  3996  00258C  6E17               	movwf	(___flmul@a+2)^0,c
  3997  00258E  0E71               	movlw	113
  3998  002590  6E18               	movwf	(___flmul@a+3)^0,c
  3999  002592  C188  F011         	movff	powf@sn,___flmul@b
  4000  002596  C189  F012         	movff	powf@sn+1,___flmul@b+1
  4001  00259A  C18A  F013         	movff	powf@sn+2,___flmul@b+2
  4002  00259E  C18B  F014         	movff	powf@sn+3,___flmul@b+3
  4003  0025A2  EC7C  F01D         	call	___flmul	;wreg free
  4004  0025A6  C011  F1A4         	movff	?___flmul,_powf$843
  4005  0025AA  C012  F1A5         	movff	?___flmul+1,_powf$843+1
  4006  0025AE  C013  F1A6         	movff	?___flmul+2,_powf$843+2
  4007  0025B2  C014  F1A7         	movff	?___flmul+3,_powf$843+3
  4008  0025B6  C1A4  F011         	movff	_powf$843,___flmul@b
  4009  0025BA  C1A5  F012         	movff	_powf$843+1,___flmul@b+1
  4010  0025BE  C1A6  F013         	movff	_powf$843+2,___flmul@b+2
  4011  0025C2  C1A7  F014         	movff	_powf$843+3,___flmul@b+3
  4012  0025C6  0ECA               	movlw	202
  4013  0025C8  6E15               	movwf	___flmul@a^0,c
  4014  0025CA  0EF2               	movlw	242
  4015  0025CC  6E16               	movwf	(___flmul@a+1)^0,c
  4016  0025CE  0E49               	movlw	73
  4017  0025D0  6E17               	movwf	(___flmul@a+2)^0,c
  4018  0025D2  0E71               	movlw	113
  4019  0025D4  6E18               	movwf	(___flmul@a+3)^0,c
  4020  0025D6  EC7C  F01D         	call	___flmul	;wreg free
  4021  0025DA  C011  F084         	movff	?___flmul,?_powf
  4022  0025DE  C012  F085         	movff	?___flmul+1,?_powf+1
  4023  0025E2  C013  F086         	movff	?___flmul+2,?_powf+2
  4024  0025E6  C014  F087         	movff	?___flmul+3,?_powf+3
  4025  0025EA  EFBB  F018         	goto	l801
  4026  0025EE                     l3324:
  4027                           
  4028                           ; BSR set to: 1
  4029  0025EE  0E43               	movlw	67
  4030  0025F0  19AF               	xorwf	(powf@j+3)& (0+255),w,b
  4031  0025F2  11AC               	iorwf	powf@j& (0+255),w,b
  4032  0025F4  11AD               	iorwf	(powf@j+1)& (0+255),w,b
  4033  0025F6  11AE               	iorwf	(powf@j+2)& (0+255),w,b
  4034  0025F8  A4D8               	btfss	status,2,c
  4035  0025FA  EF01  F013         	goto	u3631
  4036  0025FE  EF03  F013         	goto	u3630
  4037  002602                     u3631:
  4038  002602  EF76  F013         	goto	l3332
  4039  002606                     u3630:
  4040  002606                     
  4041                           ; BSR set to: 1
  4042  002606  C19C  F02E         	movff	powf@p_h,___flsub@a
  4043  00260A  C19D  F02F         	movff	powf@p_h+1,___flsub@a+1
  4044  00260E  C19E  F030         	movff	powf@p_h+2,___flsub@a+2
  4045  002612  C19F  F031         	movff	powf@p_h+3,___flsub@a+3
  4046  002616  C1B4  F02A         	movff	powf@z,___flsub@b
  4047  00261A  C1B5  F02B         	movff	powf@z+1,___flsub@b+1
  4048  00261E  C1B6  F02C         	movff	powf@z+2,___flsub@b+2
  4049  002622  C1B7  F02D         	movff	powf@z+3,___flsub@b+3
  4050  002626  EC27  F026         	call	___flsub	;wreg free
  4051  00262A  C02A  F032         	movff	?___flsub,___flge@ff1
  4052  00262E  C02B  F033         	movff	?___flsub+1,___flge@ff1+1
  4053  002632  C02C  F034         	movff	?___flsub+2,___flge@ff1+2
  4054  002636  C02D  F035         	movff	?___flsub+3,___flge@ff1+3
  4055  00263A  0E3C               	movlw	60
  4056  00263C  6E05               	movwf	___fladd@a^0,c
  4057  00263E  0EAA               	movlw	170
  4058  002640  6E06               	movwf	(___fladd@a+1)^0,c
  4059  002642  0E38               	movlw	56
  4060  002644  6E07               	movwf	(___fladd@a+2)^0,c
  4061  002646  0E33               	movlw	51
  4062  002648  6E08               	movwf	(___fladd@a+3)^0,c
  4063  00264A  C164  F001         	movff	powf@p_l,___fladd@b
  4064  00264E  C165  F002         	movff	powf@p_l+1,___fladd@b+1
  4065  002652  C166  F003         	movff	powf@p_l+2,___fladd@b+2
  4066  002656  C167  F004         	movff	powf@p_l+3,___fladd@b+3
  4067  00265A  EC1C  F01B         	call	___fladd	;wreg free
  4068  00265E  C001  F036         	movff	?___fladd,___flge@ff2
  4069  002662  C002  F037         	movff	?___fladd+1,___flge@ff2+1
  4070  002666  C003  F038         	movff	?___fladd+2,___flge@ff2+2
  4071  00266A  C004  F039         	movff	?___fladd+3,___flge@ff2+3
  4072  00266E  ECB7  F024         	call	___flge	;wreg free
  4073  002672  B0D8               	btfsc	status,0,c
  4074  002674  EF3E  F013         	goto	u3641
  4075  002678  EF40  F013         	goto	u3640
  4076  00267C                     u3641:
  4077  00267C  EF38  F014         	goto	l3348
  4078  002680                     u3640:
  4079  002680  0ECA               	movlw	202
  4080  002682  6E15               	movwf	___flmul@a^0,c
  4081  002684  0EF2               	movlw	242
  4082  002686  6E16               	movwf	(___flmul@a+1)^0,c
  4083  002688  0E49               	movlw	73
  4084  00268A  6E17               	movwf	(___flmul@a+2)^0,c
  4085  00268C  0E71               	movlw	113
  4086  00268E  6E18               	movwf	(___flmul@a+3)^0,c
  4087  002690  C188  F011         	movff	powf@sn,___flmul@b
  4088  002694  C189  F012         	movff	powf@sn+1,___flmul@b+1
  4089  002698  C18A  F013         	movff	powf@sn+2,___flmul@b+2
  4090  00269C  C18B  F014         	movff	powf@sn+3,___flmul@b+3
  4091  0026A0  EC7C  F01D         	call	___flmul	;wreg free
  4092  0026A4  C011  F1A4         	movff	?___flmul,_powf$843
  4093  0026A8  C012  F1A5         	movff	?___flmul+1,_powf$843+1
  4094  0026AC  C013  F1A6         	movff	?___flmul+2,_powf$843+2
  4095  0026B0  C014  F1A7         	movff	?___flmul+3,_powf$843+3
  4096  0026B4  C1A4  F011         	movff	_powf$843,___flmul@b
  4097  0026B8  C1A5  F012         	movff	_powf$843+1,___flmul@b+1
  4098  0026BC  C1A6  F013         	movff	_powf$843+2,___flmul@b+2
  4099  0026C0  C1A7  F014         	movff	_powf$843+3,___flmul@b+3
  4100  0026C4  0ECA               	movlw	202
  4101  0026C6  6E15               	movwf	___flmul@a^0,c
  4102  0026C8  0EF2               	movlw	242
  4103  0026CA  6E16               	movwf	(___flmul@a+1)^0,c
  4104  0026CC  0E49               	movlw	73
  4105  0026CE  6E17               	movwf	(___flmul@a+2)^0,c
  4106  0026D0  0E71               	movlw	113
  4107  0026D2  6E18               	movwf	(___flmul@a+3)^0,c
  4108  0026D4  EC7C  F01D         	call	___flmul	;wreg free
  4109  0026D8  C011  F084         	movff	?___flmul,?_powf
  4110  0026DC  C012  F085         	movff	?___flmul+1,?_powf+1
  4111  0026E0  C013  F086         	movff	?___flmul+2,?_powf+2
  4112  0026E4  C014  F087         	movff	?___flmul+3,?_powf+3
  4113  0026E8  EFBB  F018         	goto	l801
  4114  0026EC                     l3332:
  4115                           
  4116                           ; BSR set to: 1
  4117  0026EC  0EFF               	movlw	255
  4118  0026EE  15AC               	andwf	powf@j& (0+255),w,b
  4119  0026F0  6E4B               	movwf	??_powf^0,c
  4120  0026F2  0EFF               	movlw	255
  4121  0026F4  15AD               	andwf	(powf@j+1)& (0+255),w,b
  4122  0026F6  6E4C               	movwf	(??_powf+1)^0,c
  4123  0026F8  0EFF               	movlw	255
  4124  0026FA  15AE               	andwf	(powf@j+2)& (0+255),w,b
  4125  0026FC  6E4D               	movwf	(??_powf+2)^0,c
  4126  0026FE  0E7F               	movlw	127
  4127  002700  15AF               	andwf	(powf@j+3)& (0+255),w,b
  4128  002702  6E4E               	movwf	(??_powf+3)^0,c
  4129  002704  BE4E               	btfsc	(??_powf+3)^0,7,c
  4130  002706  EF91  F013         	goto	u3651
  4131  00270A  044B               	decf	??_powf^0,w,c
  4132  00270C  0E00               	movlw	0
  4133  00270E  584C               	subwfb	(??_powf+1)^0,w,c
  4134  002710  0E16               	movlw	22
  4135  002712  584D               	subwfb	(??_powf+2)^0,w,c
  4136  002714  0E43               	movlw	67
  4137  002716  584E               	subwfb	(??_powf+3)^0,w,c
  4138  002718  A0D8               	btfss	status,0,c
  4139  00271A  EF91  F013         	goto	u3651
  4140  00271E  EF93  F013         	goto	u3650
  4141  002722                     u3651:
  4142  002722  EFC9  F013         	goto	l3340
  4143  002726                     u3650:
  4144  002726                     
  4145                           ; BSR set to: 1
  4146  002726  0E60               	movlw	96
  4147  002728  6E15               	movwf	___flmul@a^0,c
  4148  00272A  0E42               	movlw	66
  4149  00272C  6E16               	movwf	(___flmul@a+1)^0,c
  4150  00272E  0EA2               	movlw	162
  4151  002730  6E17               	movwf	(___flmul@a+2)^0,c
  4152  002732  0E0D               	movlw	13
  4153  002734  6E18               	movwf	(___flmul@a+3)^0,c
  4154  002736  C188  F011         	movff	powf@sn,___flmul@b
  4155  00273A  C189  F012         	movff	powf@sn+1,___flmul@b+1
  4156  00273E  C18A  F013         	movff	powf@sn+2,___flmul@b+2
  4157  002742  C18B  F014         	movff	powf@sn+3,___flmul@b+3
  4158  002746  EC7C  F01D         	call	___flmul	;wreg free
  4159  00274A  C011  F1A4         	movff	?___flmul,_powf$843
  4160  00274E  C012  F1A5         	movff	?___flmul+1,_powf$843+1
  4161  002752  C013  F1A6         	movff	?___flmul+2,_powf$843+2
  4162  002756  C014  F1A7         	movff	?___flmul+3,_powf$843+3
  4163  00275A  C1A4  F011         	movff	_powf$843,___flmul@b
  4164  00275E  C1A5  F012         	movff	_powf$843+1,___flmul@b+1
  4165  002762  C1A6  F013         	movff	_powf$843+2,___flmul@b+2
  4166  002766  C1A7  F014         	movff	_powf$843+3,___flmul@b+3
  4167  00276A  0E60               	movlw	96
  4168  00276C  6E15               	movwf	___flmul@a^0,c
  4169  00276E  0E42               	movlw	66
  4170  002770  6E16               	movwf	(___flmul@a+1)^0,c
  4171  002772  0EA2               	movlw	162
  4172  002774  6E17               	movwf	(___flmul@a+2)^0,c
  4173  002776  0E0D               	movlw	13
  4174  002778  6E18               	movwf	(___flmul@a+3)^0,c
  4175  00277A  EC7C  F01D         	call	___flmul	;wreg free
  4176  00277E  C011  F084         	movff	?___flmul,?_powf
  4177  002782  C012  F085         	movff	?___flmul+1,?_powf+1
  4178  002786  C013  F086         	movff	?___flmul+2,?_powf+2
  4179  00278A  C014  F087         	movff	?___flmul+3,?_powf+3
  4180  00278E  EFBB  F018         	goto	l801
  4181  002792                     l3340:
  4182                           
  4183                           ; BSR set to: 1
  4184  002792  0E16               	movlw	22
  4185  002794  19AE               	xorwf	(powf@j+2)& (0+255),w,b
  4186  002796  E109               	bnz	u3661
  4187  002798  0EC3               	movlw	195
  4188  00279A  19AF               	xorwf	(powf@j+3)& (0+255),w,b
  4189  00279C  11AC               	iorwf	powf@j& (0+255),w,b
  4190  00279E  11AD               	iorwf	(powf@j+1)& (0+255),w,b
  4191  0027A0  A4D8               	btfss	status,2,c
  4192  0027A2  EFD5  F013         	goto	u3661
  4193  0027A6  EFD7  F013         	goto	u3660
  4194  0027AA                     u3661:
  4195  0027AA  EF38  F014         	goto	l3348
  4196  0027AE                     u3660:
  4197  0027AE                     
  4198                           ; BSR set to: 1
  4199  0027AE  C19C  F02E         	movff	powf@p_h,___flsub@a
  4200  0027B2  C19D  F02F         	movff	powf@p_h+1,___flsub@a+1
  4201  0027B6  C19E  F030         	movff	powf@p_h+2,___flsub@a+2
  4202  0027BA  C19F  F031         	movff	powf@p_h+3,___flsub@a+3
  4203  0027BE  C1B4  F02A         	movff	powf@z,___flsub@b
  4204  0027C2  C1B5  F02B         	movff	powf@z+1,___flsub@b+1
  4205  0027C6  C1B6  F02C         	movff	powf@z+2,___flsub@b+2
  4206  0027CA  C1B7  F02D         	movff	powf@z+3,___flsub@b+3
  4207  0027CE  EC27  F026         	call	___flsub	;wreg free
  4208  0027D2  C02A  F032         	movff	?___flsub,___flge@ff1
  4209  0027D6  C02B  F033         	movff	?___flsub+1,___flge@ff1+1
  4210  0027DA  C02C  F034         	movff	?___flsub+2,___flge@ff1+2
  4211  0027DE  C02D  F035         	movff	?___flsub+3,___flge@ff1+3
  4212  0027E2  C164  F036         	movff	powf@p_l,___flge@ff2
  4213  0027E6  C165  F037         	movff	powf@p_l+1,___flge@ff2+1
  4214  0027EA  C166  F038         	movff	powf@p_l+2,___flge@ff2+2
  4215  0027EE  C167  F039         	movff	powf@p_l+3,___flge@ff2+3
  4216  0027F2  ECB7  F024         	call	___flge	;wreg free
  4217  0027F6  A0D8               	btfss	status,0,c
  4218  0027F8  EF00  F014         	goto	u3671
  4219  0027FC  EF02  F014         	goto	u3670
  4220  002800                     u3671:
  4221  002800  EF38  F014         	goto	l3348
  4222  002804                     u3670:
  4223  002804  0E60               	movlw	96
  4224  002806  6E15               	movwf	___flmul@a^0,c
  4225  002808  0E42               	movlw	66
  4226  00280A  6E16               	movwf	(___flmul@a+1)^0,c
  4227  00280C  0EA2               	movlw	162
  4228  00280E  6E17               	movwf	(___flmul@a+2)^0,c
  4229  002810  0E0D               	movlw	13
  4230  002812  6E18               	movwf	(___flmul@a+3)^0,c
  4231  002814  C188  F011         	movff	powf@sn,___flmul@b
  4232  002818  C189  F012         	movff	powf@sn+1,___flmul@b+1
  4233  00281C  C18A  F013         	movff	powf@sn+2,___flmul@b+2
  4234  002820  C18B  F014         	movff	powf@sn+3,___flmul@b+3
  4235  002824  EC7C  F01D         	call	___flmul	;wreg free
  4236  002828  C011  F1A4         	movff	?___flmul,_powf$843
  4237  00282C  C012  F1A5         	movff	?___flmul+1,_powf$843+1
  4238  002830  C013  F1A6         	movff	?___flmul+2,_powf$843+2
  4239  002834  C014  F1A7         	movff	?___flmul+3,_powf$843+3
  4240  002838  C1A4  F011         	movff	_powf$843,___flmul@b
  4241  00283C  C1A5  F012         	movff	_powf$843+1,___flmul@b+1
  4242  002840  C1A6  F013         	movff	_powf$843+2,___flmul@b+2
  4243  002844  C1A7  F014         	movff	_powf$843+3,___flmul@b+3
  4244  002848  0E60               	movlw	96
  4245  00284A  6E15               	movwf	___flmul@a^0,c
  4246  00284C  0E42               	movlw	66
  4247  00284E  6E16               	movwf	(___flmul@a+1)^0,c
  4248  002850  0EA2               	movlw	162
  4249  002852  6E17               	movwf	(___flmul@a+2)^0,c
  4250  002854  0E0D               	movlw	13
  4251  002856  6E18               	movwf	(___flmul@a+3)^0,c
  4252  002858  EC7C  F01D         	call	___flmul	;wreg free
  4253  00285C  C011  F084         	movff	?___flmul,?_powf
  4254  002860  C012  F085         	movff	?___flmul+1,?_powf+1
  4255  002864  C013  F086         	movff	?___flmul+2,?_powf+2
  4256  002868  C014  F087         	movff	?___flmul+3,?_powf+3
  4257  00286C  EFBB  F018         	goto	l801
  4258  002870                     l3348:
  4259  002870  0EFF               	movlw	255
  4260  002872  0101               	movlb	1	; () banked
  4261  002874  15AC               	andwf	powf@j& (0+255),w,b
  4262  002876  6F2C               	movwf	powf@i& (0+255),b
  4263  002878  0EFF               	movlw	255
  4264  00287A  15AD               	andwf	(powf@j+1)& (0+255),w,b
  4265  00287C  6F2D               	movwf	(powf@i+1)& (0+255),b
  4266  00287E  0EFF               	movlw	255
  4267  002880  15AE               	andwf	(powf@j+2)& (0+255),w,b
  4268  002882  6F2E               	movwf	(powf@i+2)& (0+255),b
  4269  002884  0E7F               	movlw	127
  4270  002886  15AF               	andwf	(powf@j+3)& (0+255),w,b
  4271  002888  6F2F               	movwf	(powf@i+3)& (0+255),b
  4272  00288A  0E17               	movlw	23
  4273  00288C  6E4B               	movwf	??_powf^0,c
  4274  00288E  C12C  F04C         	movff	powf@i,??_powf+1
  4275  002892  C12D  F04D         	movff	powf@i+1,??_powf+2
  4276  002896  C12E  F04E         	movff	powf@i+2,??_powf+3
  4277  00289A  C12F  F04F         	movff	powf@i+3,??_powf+4
  4278  00289E                     u3685:
  4279  00289E  664B               	tstfsz	??_powf^0,c
  4280  0028A0  EF54  F014         	goto	u3686
  4281  0028A4  EF5C  F014         	goto	u3687
  4282  0028A8                     u3686:
  4283  0028A8  344F               	rlcf	(??_powf+4)^0,w,c
  4284  0028AA  324F               	rrcf	(??_powf+4)^0,f,c
  4285  0028AC  324E               	rrcf	(??_powf+3)^0,f,c
  4286  0028AE  324D               	rrcf	(??_powf+2)^0,f,c
  4287  0028B0  324C               	rrcf	(??_powf+1)^0,f,c
  4288  0028B2  2E4B               	decfsz	??_powf^0,f,c
  4289  0028B4  EF4F  F014         	goto	u3685
  4290  0028B8                     u3687:
  4291  0028B8  0E81               	movlw	129
  4292  0028BA  244C               	addwf	(??_powf+1)^0,w,c
  4293  0028BC  0101               	movlb	1	; () banked
  4294  0028BE  6FA0               	movwf	powf@k& (0+255),b
  4295  0028C0  0EFF               	movlw	255
  4296  0028C2  204D               	addwfc	(??_powf+2)^0,w,c
  4297  0028C4  6FA1               	movwf	(powf@k+1)& (0+255),b
  4298  0028C6  0EFF               	movlw	255
  4299  0028C8  204E               	addwfc	(??_powf+3)^0,w,c
  4300  0028CA  6FA2               	movwf	(powf@k+2)& (0+255),b
  4301  0028CC  0EFF               	movlw	255
  4302  0028CE  204F               	addwfc	(??_powf+4)^0,w,c
  4303  0028D0  6FA3               	movwf	(powf@k+3)& (0+255),b
  4304  0028D2                     
  4305                           ; BSR set to: 1
  4306  0028D2  0E00               	movlw	0
  4307  0028D4  6F7C               	movwf	powf@n& (0+255),b
  4308  0028D6  0E00               	movlw	0
  4309  0028D8  6F7D               	movwf	(powf@n+1)& (0+255),b
  4310  0028DA  0E00               	movlw	0
  4311  0028DC  6F7E               	movwf	(powf@n+2)& (0+255),b
  4312  0028DE  0E00               	movlw	0
  4313  0028E0  6F7F               	movwf	(powf@n+3)& (0+255),b
  4314  0028E2                     
  4315                           ; BSR set to: 1
  4316  0028E2  BF2F               	btfsc	(powf@i+3)& (0+255),7,b
  4317  0028E4  EF80  F014         	goto	u3691
  4318  0028E8  052C               	decf	powf@i& (0+255),w,b
  4319  0028EA  0E00               	movlw	0
  4320  0028EC  592D               	subwfb	(powf@i+1)& (0+255),w,b
  4321  0028EE  0E00               	movlw	0
  4322  0028F0  592E               	subwfb	(powf@i+2)& (0+255),w,b
  4323  0028F2  0E3F               	movlw	63
  4324  0028F4  592F               	subwfb	(powf@i+3)& (0+255),w,b
  4325  0028F6  A0D8               	btfss	status,0,c
  4326  0028F8  EF80  F014         	goto	u3691
  4327  0028FC  EF82  F014         	goto	u3690
  4328  002900                     u3691:
  4329  002900  EF62  F015         	goto	l3362
  4330  002904                     u3690:
  4331  002904                     
  4332                           ; BSR set to: 1
  4333  002904  C1A0  F04B         	movff	powf@k,??_powf
  4334  002908  0E01               	movlw	1
  4335  00290A  264B               	addwf	??_powf^0,f,c
  4336  00290C  0E00               	movlw	0
  4337  00290E  6E4C               	movwf	(??_powf+1)^0,c
  4338  002910  0E00               	movlw	0
  4339  002912  6E4D               	movwf	(??_powf+2)^0,c
  4340  002914  0E80               	movlw	128
  4341  002916  6E4E               	movwf	(??_powf+3)^0,c
  4342  002918  0E00               	movlw	0
  4343  00291A  6E4F               	movwf	(??_powf+4)^0,c
  4344  00291C                     u3705:
  4345  00291C  664B               	tstfsz	??_powf^0,c
  4346  00291E  EF93  F014         	goto	u3706
  4347  002922  EF9B  F014         	goto	u3707
  4348  002926                     u3706:
  4349  002926  344F               	rlcf	(??_powf+4)^0,w,c
  4350  002928  324F               	rrcf	(??_powf+4)^0,f,c
  4351  00292A  324E               	rrcf	(??_powf+3)^0,f,c
  4352  00292C  324D               	rrcf	(??_powf+2)^0,f,c
  4353  00292E  324C               	rrcf	(??_powf+1)^0,f,c
  4354  002930  2E4B               	decfsz	??_powf^0,f,c
  4355  002932  EF8E  F014         	goto	u3705
  4356  002936                     u3707:
  4357  002936  0101               	movlb	1	; () banked
  4358  002938  51AC               	movf	powf@j& (0+255),w,b
  4359  00293A  244C               	addwf	(??_powf+1)^0,w,c
  4360  00293C  6F7C               	movwf	powf@n& (0+255),b
  4361  00293E  51AD               	movf	(powf@j+1)& (0+255),w,b
  4362  002940  204D               	addwfc	(??_powf+2)^0,w,c
  4363  002942  6F7D               	movwf	(powf@n+1)& (0+255),b
  4364  002944  51AE               	movf	(powf@j+2)& (0+255),w,b
  4365  002946  204E               	addwfc	(??_powf+3)^0,w,c
  4366  002948  6F7E               	movwf	(powf@n+2)& (0+255),b
  4367  00294A  51AF               	movf	(powf@j+3)& (0+255),w,b
  4368  00294C  204F               	addwfc	(??_powf+4)^0,w,c
  4369  00294E  6F7F               	movwf	(powf@n+3)& (0+255),b
  4370  002950  0E81               	movlw	129
  4371  002952  6E4B               	movwf	??_powf^0,c
  4372  002954  0EFF               	movlw	255
  4373  002956  6E4C               	movwf	(??_powf+1)^0,c
  4374  002958  0EFF               	movlw	255
  4375  00295A  6E4D               	movwf	(??_powf+2)^0,c
  4376  00295C  0EFF               	movlw	255
  4377  00295E  6E4E               	movwf	(??_powf+3)^0,c
  4378  002960  0E17               	movlw	23
  4379  002962  6E4F               	movwf	(??_powf+4)^0,c
  4380  002964  C17C  F050         	movff	powf@n,??_powf+5
  4381  002968  C17D  F051         	movff	powf@n+1,??_powf+6
  4382  00296C  C17E  F052         	movff	powf@n+2,??_powf+7
  4383  002970  C17F  F053         	movff	powf@n+3,??_powf+8
  4384  002974                     u3715:
  4385  002974  664F               	tstfsz	(??_powf+4)^0,c
  4386  002976  EFBF  F014         	goto	u3716
  4387  00297A  EFC7  F014         	goto	u3717
  4388  00297E                     u3716:
  4389  00297E  3453               	rlcf	(??_powf+8)^0,w,c
  4390  002980  3253               	rrcf	(??_powf+8)^0,f,c
  4391  002982  3252               	rrcf	(??_powf+7)^0,f,c
  4392  002984  3251               	rrcf	(??_powf+6)^0,f,c
  4393  002986  3250               	rrcf	(??_powf+5)^0,f,c
  4394  002988  2E4F               	decfsz	(??_powf+4)^0,f,c
  4395  00298A  EFBA  F014         	goto	u3715
  4396  00298E                     u3717:
  4397  00298E  5050               	movf	(??_powf+5)^0,w,c
  4398  002990  244B               	addwf	??_powf^0,w,c
  4399  002992  0101               	movlb	1	; () banked
  4400  002994  6FA0               	movwf	powf@k& (0+255),b
  4401  002996  0E00               	movlw	0
  4402  002998  204C               	addwfc	(??_powf+1)^0,w,c
  4403  00299A  6FA1               	movwf	(powf@k+1)& (0+255),b
  4404  00299C  0E00               	movlw	0
  4405  00299E  204D               	addwfc	(??_powf+2)^0,w,c
  4406  0029A0  6FA2               	movwf	(powf@k+2)& (0+255),b
  4407  0029A2  0E00               	movlw	0
  4408  0029A4  204E               	addwfc	(??_powf+3)^0,w,c
  4409  0029A6  6FA3               	movwf	(powf@k+3)& (0+255),b
  4410  0029A8                     
  4411                           ; BSR set to: 1
  4412  0029A8  C1A0  F04B         	movff	powf@k,??_powf
  4413  0029AC  0EFF               	movlw	255
  4414  0029AE  6E4C               	movwf	(??_powf+1)^0,c
  4415  0029B0  0EFF               	movlw	255
  4416  0029B2  6E4D               	movwf	(??_powf+2)^0,c
  4417  0029B4  0E7F               	movlw	127
  4418  0029B6  6E4E               	movwf	(??_powf+3)^0,c
  4419  0029B8  0E00               	movlw	0
  4420  0029BA  6E4F               	movwf	(??_powf+4)^0,c
  4421  0029BC                     u3725:
  4422  0029BC  664B               	tstfsz	??_powf^0,c
  4423  0029BE  EFE3  F014         	goto	u3726
  4424  0029C2  EFEB  F014         	goto	u3727
  4425  0029C6                     u3726:
  4426  0029C6  344F               	rlcf	(??_powf+4)^0,w,c
  4427  0029C8  324F               	rrcf	(??_powf+4)^0,f,c
  4428  0029CA  324E               	rrcf	(??_powf+3)^0,f,c
  4429  0029CC  324D               	rrcf	(??_powf+2)^0,f,c
  4430  0029CE  324C               	rrcf	(??_powf+1)^0,f,c
  4431  0029D0  2E4B               	decfsz	??_powf^0,f,c
  4432  0029D2  EFDE  F014         	goto	u3725
  4433  0029D6                     u3727:
  4434  0029D6  1C4C               	comf	(??_powf+1)^0,w,c
  4435  0029D8  6E50               	movwf	(??_powf+5)^0,c
  4436  0029DA  1C4D               	comf	(??_powf+2)^0,w,c
  4437  0029DC  6E51               	movwf	(??_powf+6)^0,c
  4438  0029DE  1C4E               	comf	(??_powf+3)^0,w,c
  4439  0029E0  6E52               	movwf	(??_powf+7)^0,c
  4440  0029E2  1C4F               	comf	(??_powf+4)^0,w,c
  4441  0029E4  6E53               	movwf	(??_powf+8)^0,c
  4442  0029E6  0101               	movlb	1	; () banked
  4443  0029E8  517C               	movf	powf@n& (0+255),w,b
  4444  0029EA  1450               	andwf	(??_powf+5)^0,w,c
  4445  0029EC  6FB8               	movwf	powf@__xc8_float_word& (0+255),b
  4446  0029EE  517D               	movf	(powf@n+1)& (0+255),w,b
  4447  0029F0  1451               	andwf	(??_powf+6)^0,w,c
  4448  0029F2  6FB9               	movwf	(powf@__xc8_float_word+1)& (0+255),b
  4449  0029F4  517E               	movf	(powf@n+2)& (0+255),w,b
  4450  0029F6  1452               	andwf	(??_powf+7)^0,w,c
  4451  0029F8  6FBA               	movwf	(powf@__xc8_float_word+2)& (0+255),b
  4452  0029FA  517F               	movf	(powf@n+3)& (0+255),w,b
  4453  0029FC  1453               	andwf	(??_powf+8)^0,w,c
  4454  0029FE  6FBB               	movwf	(powf@__xc8_float_word+3)& (0+255),b
  4455  002A00                     
  4456                           ; BSR set to: 1
  4457  002A00  C1B8  F1B0         	movff	powf@__xc8_float_word,powf@t
  4458  002A04  C1B9  F1B1         	movff	powf@__xc8_float_word+1,powf@t+1
  4459  002A08  C1BA  F1B2         	movff	powf@__xc8_float_word+2,powf@t+2
  4460  002A0C  C1BB  F1B3         	movff	powf@__xc8_float_word+3,powf@t+3
  4461  002A10                     
  4462                           ; BSR set to: 1
  4463  002A10  51A0               	movf	powf@k& (0+255),w,b
  4464  002A12  0817               	sublw	23
  4465  002A14  6E4B               	movwf	??_powf^0,c
  4466  002A16  0EFF               	movlw	255
  4467  002A18  157C               	andwf	powf@n& (0+255),w,b
  4468  002A1A  6E4C               	movwf	(??_powf+1)^0,c
  4469  002A1C  0EFF               	movlw	255
  4470  002A1E  157D               	andwf	(powf@n+1)& (0+255),w,b
  4471  002A20  6E4D               	movwf	(??_powf+2)^0,c
  4472  002A22  0E7F               	movlw	127
  4473  002A24  157E               	andwf	(powf@n+2)& (0+255),w,b
  4474  002A26  6E4E               	movwf	(??_powf+3)^0,c
  4475  002A28  0E00               	movlw	0
  4476  002A2A  157F               	andwf	(powf@n+3)& (0+255),w,b
  4477  002A2C  6E4F               	movwf	(??_powf+4)^0,c
  4478  002A2E  0E00               	movlw	0
  4479  002A30  104C               	iorwf	(??_powf+1)^0,w,c
  4480  002A32  6E50               	movwf	(??_powf+5)^0,c
  4481  002A34  0E00               	movlw	0
  4482  002A36  104D               	iorwf	(??_powf+2)^0,w,c
  4483  002A38  6E51               	movwf	(??_powf+6)^0,c
  4484  002A3A  0E80               	movlw	128
  4485  002A3C  104E               	iorwf	(??_powf+3)^0,w,c
  4486  002A3E  6E52               	movwf	(??_powf+7)^0,c
  4487  002A40  0E00               	movlw	0
  4488  002A42  104F               	iorwf	(??_powf+4)^0,w,c
  4489  002A44  6E53               	movwf	(??_powf+8)^0,c
  4490  002A46                     u3735:
  4491  002A46  664B               	tstfsz	??_powf^0,c
  4492  002A48  EF28  F015         	goto	u3736
  4493  002A4C  EF30  F015         	goto	u3737
  4494  002A50                     u3736:
  4495  002A50  3453               	rlcf	(??_powf+8)^0,w,c
  4496  002A52  3253               	rrcf	(??_powf+8)^0,f,c
  4497  002A54  3252               	rrcf	(??_powf+7)^0,f,c
  4498  002A56  3251               	rrcf	(??_powf+6)^0,f,c
  4499  002A58  3250               	rrcf	(??_powf+5)^0,f,c
  4500  002A5A  2E4B               	decfsz	??_powf^0,f,c
  4501  002A5C  EF23  F015         	goto	u3735
  4502  002A60                     u3737:
  4503  002A60  C050  F17C         	movff	??_powf+5,powf@n
  4504  002A64  C051  F17D         	movff	??_powf+6,powf@n+1
  4505  002A68  C052  F17E         	movff	??_powf+7,powf@n+2
  4506  002A6C  C053  F17F         	movff	??_powf+8,powf@n+3
  4507  002A70  0101               	movlb	1	; () banked
  4508  002A72  BFAF               	btfsc	(powf@j+3)& (0+255),7,b
  4509  002A74  EF40  F015         	goto	u3740
  4510  002A78  EF3E  F015         	goto	u3741
  4511  002A7C                     u3741:
  4512  002A7C  EF48  F015         	goto	l3360
  4513  002A80                     u3740:
  4514  002A80                     
  4515                           ; BSR set to: 1
  4516  002A80  1F7F               	comf	(powf@n+3)& (0+255),f,b
  4517  002A82  1F7E               	comf	(powf@n+2)& (0+255),f,b
  4518  002A84  1F7D               	comf	(powf@n+1)& (0+255),f,b
  4519  002A86  6D7C               	negf	powf@n& (0+255),b
  4520  002A88  0E00               	movlw	0
  4521  002A8A  237D               	addwfc	(powf@n+1)& (0+255),f,b
  4522  002A8C  237E               	addwfc	(powf@n+2)& (0+255),f,b
  4523  002A8E  237F               	addwfc	(powf@n+3)& (0+255),f,b
  4524  002A90                     l3360:
  4525                           
  4526                           ; BSR set to: 1
  4527  002A90  C19C  F02A         	movff	powf@p_h,___flsub@b
  4528  002A94  C19D  F02B         	movff	powf@p_h+1,___flsub@b+1
  4529  002A98  C19E  F02C         	movff	powf@p_h+2,___flsub@b+2
  4530  002A9C  C19F  F02D         	movff	powf@p_h+3,___flsub@b+3
  4531  002AA0  C1B0  F02E         	movff	powf@t,___flsub@a
  4532  002AA4  C1B1  F02F         	movff	powf@t+1,___flsub@a+1
  4533  002AA8  C1B2  F030         	movff	powf@t+2,___flsub@a+2
  4534  002AAC  C1B3  F031         	movff	powf@t+3,___flsub@a+3
  4535  002AB0  EC27  F026         	call	___flsub	;wreg free
  4536  002AB4  C02A  F19C         	movff	?___flsub,powf@p_h
  4537  002AB8  C02B  F19D         	movff	?___flsub+1,powf@p_h+1
  4538  002ABC  C02C  F19E         	movff	?___flsub+2,powf@p_h+2
  4539  002AC0  C02D  F19F         	movff	?___flsub+3,powf@p_h+3
  4540  002AC4                     l3362:
  4541  002AC4  C164  F001         	movff	powf@p_l,___fladd@b
  4542  002AC8  C165  F002         	movff	powf@p_l+1,___fladd@b+1
  4543  002ACC  C166  F003         	movff	powf@p_l+2,___fladd@b+2
  4544  002AD0  C167  F004         	movff	powf@p_l+3,___fladd@b+3
  4545  002AD4  C19C  F005         	movff	powf@p_h,___fladd@a
  4546  002AD8  C19D  F006         	movff	powf@p_h+1,___fladd@a+1
  4547  002ADC  C19E  F007         	movff	powf@p_h+2,___fladd@a+2
  4548  002AE0  C19F  F008         	movff	powf@p_h+3,___fladd@a+3
  4549  002AE4  EC1C  F01B         	call	___fladd	;wreg free
  4550  002AE8  C001  F1B0         	movff	?___fladd,powf@t
  4551  002AEC  C002  F1B1         	movff	?___fladd+1,powf@t+1
  4552  002AF0  C003  F1B2         	movff	?___fladd+2,powf@t+2
  4553  002AF4  C004  F1B3         	movff	?___fladd+3,powf@t+3
  4554  002AF8  C1B0  F1B8         	movff	powf@t,powf@__xc8_float_word
  4555  002AFC  C1B1  F1B9         	movff	powf@t+1,powf@__xc8_float_word+1
  4556  002B00  C1B2  F1BA         	movff	powf@t+2,powf@__xc8_float_word+2
  4557  002B04  C1B3  F1BB         	movff	powf@t+3,powf@__xc8_float_word+3
  4558  002B08  C1B8  F190         	movff	powf@__xc8_float_word,powf@is
  4559  002B0C  C1B9  F191         	movff	powf@__xc8_float_word+1,powf@is+1
  4560  002B10  C1BA  F192         	movff	powf@__xc8_float_word+2,powf@is+2
  4561  002B14  C1BB  F193         	movff	powf@__xc8_float_word+3,powf@is+3
  4562  002B18  0E00               	movlw	0
  4563  002B1A  0101               	movlb	1	; () banked
  4564  002B1C  1590               	andwf	powf@is& (0+255),w,b
  4565  002B1E  6FB8               	movwf	powf@__xc8_float_word& (0+255),b
  4566  002B20  0E80               	movlw	128
  4567  002B22  1591               	andwf	(powf@is+1)& (0+255),w,b
  4568  002B24  6FB9               	movwf	(powf@__xc8_float_word+1)& (0+255),b
  4569  002B26  0EFF               	movlw	255
  4570  002B28  1592               	andwf	(powf@is+2)& (0+255),w,b
  4571  002B2A  6FBA               	movwf	(powf@__xc8_float_word+2)& (0+255),b
  4572  002B2C  0EFF               	movlw	255
  4573  002B2E  1593               	andwf	(powf@is+3)& (0+255),w,b
  4574  002B30  6FBB               	movwf	(powf@__xc8_float_word+3)& (0+255),b
  4575  002B32                     
  4576                           ; BSR set to: 1
  4577  002B32  C1B8  F1B0         	movff	powf@__xc8_float_word,powf@t
  4578  002B36  C1B9  F1B1         	movff	powf@__xc8_float_word+1,powf@t+1
  4579  002B3A  C1BA  F1B2         	movff	powf@__xc8_float_word+2,powf@t+2
  4580  002B3E  C1BB  F1B3         	movff	powf@__xc8_float_word+3,powf@t+3
  4581  002B42                     
  4582                           ; BSR set to: 1
  4583  002B42  C1B0  F011         	movff	powf@t,___flmul@b
  4584  002B46  C1B1  F012         	movff	powf@t+1,___flmul@b+1
  4585  002B4A  C1B2  F013         	movff	powf@t+2,___flmul@b+2
  4586  002B4E  C1B3  F014         	movff	powf@t+3,___flmul@b+3
  4587  002B52  0E00               	movlw	0
  4588  002B54  6E15               	movwf	___flmul@a^0,c
  4589  002B56  0E72               	movlw	114
  4590  002B58  6E16               	movwf	(___flmul@a+1)^0,c
  4591  002B5A  0E31               	movlw	49
  4592  002B5C  6E17               	movwf	(___flmul@a+2)^0,c
  4593  002B5E  0E3F               	movlw	63
  4594  002B60  6E18               	movwf	(___flmul@a+3)^0,c
  4595  002B62  EC7C  F01D         	call	___flmul	;wreg free
  4596  002B66  C011  F174         	movff	?___flmul,powf@u
  4597  002B6A  C012  F175         	movff	?___flmul+1,powf@u+1
  4598  002B6E  C013  F176         	movff	?___flmul+2,powf@u+2
  4599  002B72  C014  F177         	movff	?___flmul+3,powf@u+3
  4600  002B76  C19C  F02E         	movff	powf@p_h,___flsub@a
  4601  002B7A  C19D  F02F         	movff	powf@p_h+1,___flsub@a+1
  4602  002B7E  C19E  F030         	movff	powf@p_h+2,___flsub@a+2
  4603  002B82  C19F  F031         	movff	powf@p_h+3,___flsub@a+3
  4604  002B86  C1B0  F02A         	movff	powf@t,___flsub@b
  4605  002B8A  C1B1  F02B         	movff	powf@t+1,___flsub@b+1
  4606  002B8E  C1B2  F02C         	movff	powf@t+2,___flsub@b+2
  4607  002B92  C1B3  F02D         	movff	powf@t+3,___flsub@b+3
  4608  002B96  EC27  F026         	call	___flsub	;wreg free
  4609  002B9A  C02A  F194         	movff	?___flsub,_powf$846
  4610  002B9E  C02B  F195         	movff	?___flsub+1,_powf$846+1
  4611  002BA2  C02C  F196         	movff	?___flsub+2,_powf$846+2
  4612  002BA6  C02D  F197         	movff	?___flsub+3,_powf$846+3
  4613  002BAA  0E18               	movlw	24
  4614  002BAC  6E15               	movwf	___flmul@a^0,c
  4615  002BAE  0E72               	movlw	114
  4616  002BB0  6E16               	movwf	(___flmul@a+1)^0,c
  4617  002BB2  0E31               	movlw	49
  4618  002BB4  6E17               	movwf	(___flmul@a+2)^0,c
  4619  002BB6  0E3F               	movlw	63
  4620  002BB8  6E18               	movwf	(___flmul@a+3)^0,c
  4621  002BBA  C194  F02E         	movff	_powf$846,___flsub@a
  4622  002BBE  C195  F02F         	movff	_powf$846+1,___flsub@a+1
  4623  002BC2  C196  F030         	movff	_powf$846+2,___flsub@a+2
  4624  002BC6  C197  F031         	movff	_powf$846+3,___flsub@a+3
  4625  002BCA  C164  F02A         	movff	powf@p_l,___flsub@b
  4626  002BCE  C165  F02B         	movff	powf@p_l+1,___flsub@b+1
  4627  002BD2  C166  F02C         	movff	powf@p_l+2,___flsub@b+2
  4628  002BD6  C167  F02D         	movff	powf@p_l+3,___flsub@b+3
  4629  002BDA  EC27  F026         	call	___flsub	;wreg free
  4630  002BDE  C02A  F011         	movff	?___flsub,___flmul@b
  4631  002BE2  C02B  F012         	movff	?___flsub+1,___flmul@b+1
  4632  002BE6  C02C  F013         	movff	?___flsub+2,___flmul@b+2
  4633  002BEA  C02D  F014         	movff	?___flsub+3,___flmul@b+3
  4634  002BEE  EC7C  F01D         	call	___flmul	;wreg free
  4635  002BF2  C011  F114         	movff	?___flmul,_powf$856
  4636  002BF6  C012  F115         	movff	?___flmul+1,_powf$856+1
  4637  002BFA  C013  F116         	movff	?___flmul+2,_powf$856+2
  4638  002BFE  C014  F117         	movff	?___flmul+3,_powf$856+3
  4639  002C02  C114  F001         	movff	_powf$856,___fladd@b
  4640  002C06  C115  F002         	movff	_powf$856+1,___fladd@b+1
  4641  002C0A  C116  F003         	movff	_powf$856+2,___fladd@b+2
  4642  002C0E  C117  F004         	movff	_powf$856+3,___fladd@b+3
  4643  002C12  0E8C               	movlw	140
  4644  002C14  6E15               	movwf	___flmul@a^0,c
  4645  002C16  0EBE               	movlw	190
  4646  002C18  6E16               	movwf	(___flmul@a+1)^0,c
  4647  002C1A  0EBF               	movlw	191
  4648  002C1C  6E17               	movwf	(___flmul@a+2)^0,c
  4649  002C1E  0E35               	movlw	53
  4650  002C20  6E18               	movwf	(___flmul@a+3)^0,c
  4651  002C22  C1B0  F011         	movff	powf@t,___flmul@b
  4652  002C26  C1B1  F012         	movff	powf@t+1,___flmul@b+1
  4653  002C2A  C1B2  F013         	movff	powf@t+2,___flmul@b+2
  4654  002C2E  C1B3  F014         	movff	powf@t+3,___flmul@b+3
  4655  002C32  EC7C  F01D         	call	___flmul	;wreg free
  4656  002C36  C011  F005         	movff	?___flmul,___fladd@a
  4657  002C3A  C012  F006         	movff	?___flmul+1,___fladd@a+1
  4658  002C3E  C013  F007         	movff	?___flmul+2,___fladd@a+2
  4659  002C42  C014  F008         	movff	?___flmul+3,___fladd@a+3
  4660  002C46  EC1C  F01B         	call	___fladd	;wreg free
  4661  002C4A  C001  F178         	movff	?___fladd,powf@v
  4662  002C4E  C002  F179         	movff	?___fladd+1,powf@v+1
  4663  002C52  C003  F17A         	movff	?___fladd+2,powf@v+2
  4664  002C56  C004  F17B         	movff	?___fladd+3,powf@v+3
  4665  002C5A  C174  F001         	movff	powf@u,___fladd@b
  4666  002C5E  C175  F002         	movff	powf@u+1,___fladd@b+1
  4667  002C62  C176  F003         	movff	powf@u+2,___fladd@b+2
  4668  002C66  C177  F004         	movff	powf@u+3,___fladd@b+3
  4669  002C6A  C178  F005         	movff	powf@v,___fladd@a
  4670  002C6E  C179  F006         	movff	powf@v+1,___fladd@a+1
  4671  002C72  C17A  F007         	movff	powf@v+2,___fladd@a+2
  4672  002C76  C17B  F008         	movff	powf@v+3,___fladd@a+3
  4673  002C7A  EC1C  F01B         	call	___fladd	;wreg free
  4674  002C7E  C001  F1B4         	movff	?___fladd,powf@z
  4675  002C82  C002  F1B5         	movff	?___fladd+1,powf@z+1
  4676  002C86  C003  F1B6         	movff	?___fladd+2,powf@z+2
  4677  002C8A  C004  F1B7         	movff	?___fladd+3,powf@z+3
  4678  002C8E  C174  F02E         	movff	powf@u,___flsub@a
  4679  002C92  C175  F02F         	movff	powf@u+1,___flsub@a+1
  4680  002C96  C176  F030         	movff	powf@u+2,___flsub@a+2
  4681  002C9A  C177  F031         	movff	powf@u+3,___flsub@a+3
  4682  002C9E  C1B4  F02A         	movff	powf@z,___flsub@b
  4683  002CA2  C1B5  F02B         	movff	powf@z+1,___flsub@b+1
  4684  002CA6  C1B6  F02C         	movff	powf@z+2,___flsub@b+2
  4685  002CAA  C1B7  F02D         	movff	powf@z+3,___flsub@b+3
  4686  002CAE  EC27  F026         	call	___flsub	;wreg free
  4687  002CB2  C02A  F194         	movff	?___flsub,_powf$846
  4688  002CB6  C02B  F195         	movff	?___flsub+1,_powf$846+1
  4689  002CBA  C02C  F196         	movff	?___flsub+2,_powf$846+2
  4690  002CBE  C02D  F197         	movff	?___flsub+3,_powf$846+3
  4691  002CC2  C178  F02A         	movff	powf@v,___flsub@b
  4692  002CC6  C179  F02B         	movff	powf@v+1,___flsub@b+1
  4693  002CCA  C17A  F02C         	movff	powf@v+2,___flsub@b+2
  4694  002CCE  C17B  F02D         	movff	powf@v+3,___flsub@b+3
  4695  002CD2  C194  F02E         	movff	_powf$846,___flsub@a
  4696  002CD6  C195  F02F         	movff	_powf$846+1,___flsub@a+1
  4697  002CDA  C196  F030         	movff	_powf$846+2,___flsub@a+2
  4698  002CDE  C197  F031         	movff	_powf$846+3,___flsub@a+3
  4699  002CE2  EC27  F026         	call	___flsub	;wreg free
  4700  002CE6  C02A  F144         	movff	?___flsub,powf@w
  4701  002CEA  C02B  F145         	movff	?___flsub+1,powf@w+1
  4702  002CEE  C02C  F146         	movff	?___flsub+2,powf@w+2
  4703  002CF2  C02D  F147         	movff	?___flsub+3,powf@w+3
  4704  002CF6  C1B4  F011         	movff	powf@z,___flmul@b
  4705  002CFA  C1B5  F012         	movff	powf@z+1,___flmul@b+1
  4706  002CFE  C1B6  F013         	movff	powf@z+2,___flmul@b+2
  4707  002D02  C1B7  F014         	movff	powf@z+3,___flmul@b+3
  4708  002D06  C1B4  F015         	movff	powf@z,___flmul@a
  4709  002D0A  C1B5  F016         	movff	powf@z+1,___flmul@a+1
  4710  002D0E  C1B6  F017         	movff	powf@z+2,___flmul@a+2
  4711  002D12  C1B7  F018         	movff	powf@z+3,___flmul@a+3
  4712  002D16  EC7C  F01D         	call	___flmul	;wreg free
  4713  002D1A  C011  F1B0         	movff	?___flmul,powf@t
  4714  002D1E  C012  F1B1         	movff	?___flmul+1,powf@t+1
  4715  002D22  C013  F1B2         	movff	?___flmul+2,powf@t+2
  4716  002D26  C014  F1B3         	movff	?___flmul+3,powf@t+3
  4717  002D2A  0E0E               	movlw	14
  4718  002D2C  6E05               	movwf	___fladd@a^0,c
  4719  002D2E  0EEA               	movlw	234
  4720  002D30  6E06               	movwf	(___fladd@a+1)^0,c
  4721  002D32  0EDD               	movlw	221
  4722  002D34  6E07               	movwf	(___fladd@a+2)^0,c
  4723  002D36  0EB5               	movlw	181
  4724  002D38  6E08               	movwf	(___fladd@a+3)^0,c
  4725  002D3A  0E4C               	movlw	76
  4726  002D3C  6E15               	movwf	___flmul@a^0,c
  4727  002D3E  0EBB               	movlw	187
  4728  002D40  6E16               	movwf	(___flmul@a+1)^0,c
  4729  002D42  0E31               	movlw	49
  4730  002D44  6E17               	movwf	(___flmul@a+2)^0,c
  4731  002D46  0E33               	movlw	51
  4732  002D48  6E18               	movwf	(___flmul@a+3)^0,c
  4733  002D4A  C1B0  F011         	movff	powf@t,___flmul@b
  4734  002D4E  C1B1  F012         	movff	powf@t+1,___flmul@b+1
  4735  002D52  C1B2  F013         	movff	powf@t+2,___flmul@b+2
  4736  002D56  C1B3  F014         	movff	powf@t+3,___flmul@b+3
  4737  002D5A  EC7C  F01D         	call	___flmul	;wreg free
  4738  002D5E  C011  F001         	movff	?___flmul,___fladd@b
  4739  002D62  C012  F002         	movff	?___flmul+1,___fladd@b+1
  4740  002D66  C013  F003         	movff	?___flmul+2,___fladd@b+2
  4741  002D6A  C014  F004         	movff	?___flmul+3,___fladd@b+3
  4742  002D6E  EC1C  F01B         	call	___fladd	;wreg free
  4743  002D72  C001  F1A4         	movff	?___fladd,_powf$843
  4744  002D76  C002  F1A5         	movff	?___fladd+1,_powf$843+1
  4745  002D7A  C003  F1A6         	movff	?___fladd+2,_powf$843+2
  4746  002D7E  C004  F1A7         	movff	?___fladd+3,_powf$843+3
  4747  002D82  0E55               	movlw	85
  4748  002D84  6E05               	movwf	___fladd@a^0,c
  4749  002D86  0EB3               	movlw	179
  4750  002D88  6E06               	movwf	(___fladd@a+1)^0,c
  4751  002D8A  0E8A               	movlw	138
  4752  002D8C  6E07               	movwf	(___fladd@a+2)^0,c
  4753  002D8E  0E38               	movlw	56
  4754  002D90  6E08               	movwf	(___fladd@a+3)^0,c
  4755  002D92  C1B0  F015         	movff	powf@t,___flmul@a
  4756  002D96  C1B1  F016         	movff	powf@t+1,___flmul@a+1
  4757  002D9A  C1B2  F017         	movff	powf@t+2,___flmul@a+2
  4758  002D9E  C1B3  F018         	movff	powf@t+3,___flmul@a+3
  4759  002DA2  C1A4  F011         	movff	_powf$843,___flmul@b
  4760  002DA6  C1A5  F012         	movff	_powf$843+1,___flmul@b+1
  4761  002DAA  C1A6  F013         	movff	_powf$843+2,___flmul@b+2
  4762  002DAE  C1A7  F014         	movff	_powf$843+3,___flmul@b+3
  4763  002DB2  EC7C  F01D         	call	___flmul	;wreg free
  4764  002DB6  C011  F001         	movff	?___flmul,___fladd@b
  4765  002DBA  C012  F002         	movff	?___flmul+1,___fladd@b+1
  4766  002DBE  C013  F003         	movff	?___flmul+2,___fladd@b+2
  4767  002DC2  C014  F004         	movff	?___flmul+3,___fladd@b+3
  4768  002DC6  EC1C  F01B         	call	___fladd	;wreg free
  4769  002DCA  C001  F154         	movff	?___fladd,_powf$844
  4770  002DCE  C002  F155         	movff	?___fladd+1,_powf$844+1
  4771  002DD2  C003  F156         	movff	?___fladd+2,_powf$844+2
  4772  002DD6  C004  F157         	movff	?___fladd+3,_powf$844+3
  4773  002DDA  0E61               	movlw	97
  4774  002DDC  6E05               	movwf	___fladd@a^0,c
  4775  002DDE  0E0B               	movlw	11
  4776  002DE0  6E06               	movwf	(___fladd@a+1)^0,c
  4777  002DE2  0E36               	movlw	54
  4778  002DE4  6E07               	movwf	(___fladd@a+2)^0,c
  4779  002DE6  0EBB               	movlw	187
  4780  002DE8  6E08               	movwf	(___fladd@a+3)^0,c
  4781  002DEA  C1B0  F015         	movff	powf@t,___flmul@a
  4782  002DEE  C1B1  F016         	movff	powf@t+1,___flmul@a+1
  4783  002DF2  C1B2  F017         	movff	powf@t+2,___flmul@a+2
  4784  002DF6  C1B3  F018         	movff	powf@t+3,___flmul@a+3
  4785  002DFA  C154  F011         	movff	_powf$844,___flmul@b
  4786  002DFE  C155  F012         	movff	_powf$844+1,___flmul@b+1
  4787  002E02  C156  F013         	movff	_powf$844+2,___flmul@b+2
  4788  002E06  C157  F014         	movff	_powf$844+3,___flmul@b+3
  4789  002E0A  EC7C  F01D         	call	___flmul	;wreg free
  4790  002E0E  C011  F001         	movff	?___flmul,___fladd@b
  4791  002E12  C012  F002         	movff	?___flmul+1,___fladd@b+1
  4792  002E16  C013  F003         	movff	?___flmul+2,___fladd@b+2
  4793  002E1A  C014  F004         	movff	?___flmul+3,___fladd@b+3
  4794  002E1E  EC1C  F01B         	call	___fladd	;wreg free
  4795  002E22  C001  F148         	movff	?___fladd,_powf$845
  4796  002E26  C002  F149         	movff	?___fladd+1,_powf$845+1
  4797  002E2A  C003  F14A         	movff	?___fladd+2,_powf$845+2
  4798  002E2E  C004  F14B         	movff	?___fladd+3,_powf$845+3
  4799  002E32  0EAB               	movlw	171
  4800  002E34  6E05               	movwf	___fladd@a^0,c
  4801  002E36  0EAA               	movlw	170
  4802  002E38  6E06               	movwf	(___fladd@a+1)^0,c
  4803  002E3A  0E2A               	movlw	42
  4804  002E3C  6E07               	movwf	(___fladd@a+2)^0,c
  4805  002E3E  0E3E               	movlw	62
  4806  002E40  6E08               	movwf	(___fladd@a+3)^0,c
  4807  002E42  C1B0  F015         	movff	powf@t,___flmul@a
  4808  002E46  C1B1  F016         	movff	powf@t+1,___flmul@a+1
  4809  002E4A  C1B2  F017         	movff	powf@t+2,___flmul@a+2
  4810  002E4E  C1B3  F018         	movff	powf@t+3,___flmul@a+3
  4811  002E52  C148  F011         	movff	_powf$845,___flmul@b
  4812  002E56  C149  F012         	movff	_powf$845+1,___flmul@b+1
  4813  002E5A  C14A  F013         	movff	_powf$845+2,___flmul@b+2
  4814  002E5E  C14B  F014         	movff	_powf$845+3,___flmul@b+3
  4815  002E62  EC7C  F01D         	call	___flmul	;wreg free
  4816  002E66  C011  F001         	movff	?___flmul,___fladd@b
  4817  002E6A  C012  F002         	movff	?___flmul+1,___fladd@b+1
  4818  002E6E  C013  F003         	movff	?___flmul+2,___fladd@b+2
  4819  002E72  C014  F004         	movff	?___flmul+3,___fladd@b+3
  4820  002E76  EC1C  F01B         	call	___fladd	;wreg free
  4821  002E7A  C001  F138         	movff	?___fladd,_powf$847
  4822  002E7E  C002  F139         	movff	?___fladd+1,_powf$847+1
  4823  002E82  C003  F13A         	movff	?___fladd+2,_powf$847+2
  4824  002E86  C004  F13B         	movff	?___fladd+3,_powf$847+3
  4825  002E8A  C1B4  F02A         	movff	powf@z,___flsub@b
  4826  002E8E  C1B5  F02B         	movff	powf@z+1,___flsub@b+1
  4827  002E92  C1B6  F02C         	movff	powf@z+2,___flsub@b+2
  4828  002E96  C1B7  F02D         	movff	powf@z+3,___flsub@b+3
  4829  002E9A  C1B0  F015         	movff	powf@t,___flmul@a
  4830  002E9E  C1B1  F016         	movff	powf@t+1,___flmul@a+1
  4831  002EA2  C1B2  F017         	movff	powf@t+2,___flmul@a+2
  4832  002EA6  C1B3  F018         	movff	powf@t+3,___flmul@a+3
  4833  002EAA  C138  F011         	movff	_powf$847,___flmul@b
  4834  002EAE  C139  F012         	movff	_powf$847+1,___flmul@b+1
  4835  002EB2  C13A  F013         	movff	_powf$847+2,___flmul@b+2
  4836  002EB6  C13B  F014         	movff	_powf$847+3,___flmul@b+3
  4837  002EBA  EC7C  F01D         	call	___flmul	;wreg free
  4838  002EBE  C011  F02E         	movff	?___flmul,___flsub@a
  4839  002EC2  C012  F02F         	movff	?___flmul+1,___flsub@a+1
  4840  002EC6  C013  F030         	movff	?___flmul+2,___flsub@a+2
  4841  002ECA  C014  F031         	movff	?___flmul+3,___flsub@a+3
  4842  002ECE  EC27  F026         	call	___flsub	;wreg free
  4843  002ED2  C02A  F180         	movff	?___flsub,powf@t1
  4844  002ED6  C02B  F181         	movff	?___flsub+1,powf@t1+1
  4845  002EDA  C02C  F182         	movff	?___flsub+2,powf@t1+2
  4846  002EDE  C02D  F183         	movff	?___flsub+3,powf@t1+3
  4847  002EE2  0E00               	movlw	0
  4848  002EE4  6E05               	movwf	___fladd@a^0,c
  4849  002EE6  0E00               	movlw	0
  4850  002EE8  6E06               	movwf	(___fladd@a+1)^0,c
  4851  002EEA  0E00               	movlw	0
  4852  002EEC  6E07               	movwf	(___fladd@a+2)^0,c
  4853  002EEE  0EC0               	movlw	192
  4854  002EF0  6E08               	movwf	(___fladd@a+3)^0,c
  4855  002EF2  C180  F001         	movff	powf@t1,___fladd@b
  4856  002EF6  C181  F002         	movff	powf@t1+1,___fladd@b+1
  4857  002EFA  C182  F003         	movff	powf@t1+2,___fladd@b+2
  4858  002EFE  C183  F004         	movff	powf@t1+3,___fladd@b+3
  4859  002F02  EC1C  F01B         	call	___fladd	;wreg free
  4860  002F06  C001  F036         	movff	?___fladd,___fldiv@a
  4861  002F0A  C002  F037         	movff	?___fladd+1,___fldiv@a+1
  4862  002F0E  C003  F038         	movff	?___fladd+2,___fldiv@a+2
  4863  002F12  C004  F039         	movff	?___fladd+3,___fldiv@a+3
  4864  002F16  C180  F015         	movff	powf@t1,___flmul@a
  4865  002F1A  C181  F016         	movff	powf@t1+1,___flmul@a+1
  4866  002F1E  C182  F017         	movff	powf@t1+2,___flmul@a+2
  4867  002F22  C183  F018         	movff	powf@t1+3,___flmul@a+3
  4868  002F26  C1B4  F011         	movff	powf@z,___flmul@b
  4869  002F2A  C1B5  F012         	movff	powf@z+1,___flmul@b+1
  4870  002F2E  C1B6  F013         	movff	powf@z+2,___flmul@b+2
  4871  002F32  C1B7  F014         	movff	powf@z+3,___flmul@b+3
  4872  002F36  EC7C  F01D         	call	___flmul	;wreg free
  4873  002F3A  C011  F032         	movff	?___flmul,___fldiv@b
  4874  002F3E  C012  F033         	movff	?___flmul+1,___fldiv@b+1
  4875  002F42  C013  F034         	movff	?___flmul+2,___fldiv@b+2
  4876  002F46  C014  F035         	movff	?___flmul+3,___fldiv@b+3
  4877  002F4A  EC91  F01F         	call	___fldiv	;wreg free
  4878  002F4E  C032  F13C         	movff	?___fldiv,_powf$851
  4879  002F52  C033  F13D         	movff	?___fldiv+1,_powf$851+1
  4880  002F56  C034  F13E         	movff	?___fldiv+2,_powf$851+2
  4881  002F5A  C035  F13F         	movff	?___fldiv+3,_powf$851+3
  4882  002F5E  C144  F005         	movff	powf@w,___fladd@a
  4883  002F62  C145  F006         	movff	powf@w+1,___fladd@a+1
  4884  002F66  C146  F007         	movff	powf@w+2,___fladd@a+2
  4885  002F6A  C147  F008         	movff	powf@w+3,___fladd@a+3
  4886  002F6E  C144  F015         	movff	powf@w,___flmul@a
  4887  002F72  C145  F016         	movff	powf@w+1,___flmul@a+1
  4888  002F76  C146  F017         	movff	powf@w+2,___flmul@a+2
  4889  002F7A  C147  F018         	movff	powf@w+3,___flmul@a+3
  4890  002F7E  C1B4  F011         	movff	powf@z,___flmul@b
  4891  002F82  C1B5  F012         	movff	powf@z+1,___flmul@b+1
  4892  002F86  C1B6  F013         	movff	powf@z+2,___flmul@b+2
  4893  002F8A  C1B7  F014         	movff	powf@z+3,___flmul@b+3
  4894  002F8E  EC7C  F01D         	call	___flmul	;wreg free
  4895  002F92  C011  F001         	movff	?___flmul,___fladd@b
  4896  002F96  C012  F002         	movff	?___flmul+1,___fladd@b+1
  4897  002F9A  C013  F003         	movff	?___flmul+2,___fladd@b+2
  4898  002F9E  C014  F004         	movff	?___flmul+3,___fladd@b+3
  4899  002FA2  EC1C  F01B         	call	___fladd	;wreg free
  4900  002FA6  C001  F118         	movff	?___fladd,_powf$857
  4901  002FAA  C002  F119         	movff	?___fladd+1,_powf$857+1
  4902  002FAE  C003  F11A         	movff	?___fladd+2,_powf$857+2
  4903  002FB2  C004  F11B         	movff	?___fladd+3,_powf$857+3
  4904  002FB6  C13C  F02A         	movff	_powf$851,___flsub@b
  4905  002FBA  C13D  F02B         	movff	_powf$851+1,___flsub@b+1
  4906  002FBE  C13E  F02C         	movff	_powf$851+2,___flsub@b+2
  4907  002FC2  C13F  F02D         	movff	_powf$851+3,___flsub@b+3
  4908  002FC6  C118  F02E         	movff	_powf$857,___flsub@a
  4909  002FCA  C119  F02F         	movff	_powf$857+1,___flsub@a+1
  4910  002FCE  C11A  F030         	movff	_powf$857+2,___flsub@a+2
  4911  002FD2  C11B  F031         	movff	_powf$857+3,___flsub@a+3
  4912  002FD6  EC27  F026         	call	___flsub	;wreg free
  4913  002FDA  C02A  F14C         	movff	?___flsub,powf@r
  4914  002FDE  C02B  F14D         	movff	?___flsub+1,powf@r+1
  4915  002FE2  C02C  F14E         	movff	?___flsub+2,powf@r+2
  4916  002FE6  C02D  F14F         	movff	?___flsub+3,powf@r+3
  4917  002FEA  C1B4  F02E         	movff	powf@z,___flsub@a
  4918  002FEE  C1B5  F02F         	movff	powf@z+1,___flsub@a+1
  4919  002FF2  C1B6  F030         	movff	powf@z+2,___flsub@a+2
  4920  002FF6  C1B7  F031         	movff	powf@z+3,___flsub@a+3
  4921  002FFA  C14C  F02A         	movff	powf@r,___flsub@b
  4922  002FFE  C14D  F02B         	movff	powf@r+1,___flsub@b+1
  4923  003002  C14E  F02C         	movff	powf@r+2,___flsub@b+2
  4924  003006  C14F  F02D         	movff	powf@r+3,___flsub@b+3
  4925  00300A  EC27  F026         	call	___flsub	;wreg free
  4926  00300E  C02A  F194         	movff	?___flsub,_powf$846
  4927  003012  C02B  F195         	movff	?___flsub+1,_powf$846+1
  4928  003016  C02C  F196         	movff	?___flsub+2,_powf$846+2
  4929  00301A  C02D  F197         	movff	?___flsub+3,_powf$846+3
  4930  00301E  0E00               	movlw	0
  4931  003020  6E2A               	movwf	___flsub@b^0,c
  4932  003022  0E00               	movlw	0
  4933  003024  6E2B               	movwf	(___flsub@b+1)^0,c
  4934  003026  0E80               	movlw	128
  4935  003028  6E2C               	movwf	(___flsub@b+2)^0,c
  4936  00302A  0E3F               	movlw	63
  4937  00302C  6E2D               	movwf	(___flsub@b+3)^0,c
  4938  00302E  C194  F02E         	movff	_powf$846,___flsub@a
  4939  003032  C195  F02F         	movff	_powf$846+1,___flsub@a+1
  4940  003036  C196  F030         	movff	_powf$846+2,___flsub@a+2
  4941  00303A  C197  F031         	movff	_powf$846+3,___flsub@a+3
  4942  00303E  EC27  F026         	call	___flsub	;wreg free
  4943  003042  C02A  F1B4         	movff	?___flsub,powf@z
  4944  003046  C02B  F1B5         	movff	?___flsub+1,powf@z+1
  4945  00304A  C02C  F1B6         	movff	?___flsub+2,powf@z+2
  4946  00304E  C02D  F1B7         	movff	?___flsub+3,powf@z+3
  4947  003052  C1B4  F1B8         	movff	powf@z,powf@__xc8_float_word
  4948  003056  C1B5  F1B9         	movff	powf@z+1,powf@__xc8_float_word+1
  4949  00305A  C1B6  F1BA         	movff	powf@z+2,powf@__xc8_float_word+2
  4950  00305E  C1B7  F1BB         	movff	powf@z+3,powf@__xc8_float_word+3
  4951  003062  C1B8  F1AC         	movff	powf@__xc8_float_word,powf@j
  4952  003066  C1B9  F1AD         	movff	powf@__xc8_float_word+1,powf@j+1
  4953  00306A  C1BA  F1AE         	movff	powf@__xc8_float_word+2,powf@j+2
  4954  00306E  C1BB  F1AF         	movff	powf@__xc8_float_word+3,powf@j+3
  4955  003072  C17C  F04B         	movff	powf@n,??_powf
  4956  003076  C17D  F04C         	movff	powf@n+1,??_powf+1
  4957  00307A  C17E  F04D         	movff	powf@n+2,??_powf+2
  4958  00307E  C17F  F04E         	movff	powf@n+3,??_powf+3
  4959  003082  0E17               	movlw	23
  4960  003084                     u3755:
  4961  003084  90D8               	bcf	status,0,c
  4962  003086  364B               	rlcf	??_powf^0,f,c
  4963  003088  364C               	rlcf	(??_powf+1)^0,f,c
  4964  00308A  364D               	rlcf	(??_powf+2)^0,f,c
  4965  00308C  364E               	rlcf	(??_powf+3)^0,f,c
  4966  00308E  2EE8               	decfsz	wreg,f,c
  4967  003090  EF42  F018         	goto	u3755
  4968  003094  504B               	movf	??_powf^0,w,c
  4969  003096  0101               	movlb	1	; () banked
  4970  003098  27AC               	addwf	powf@j& (0+255),f,b
  4971  00309A  504C               	movf	(??_powf+1)^0,w,c
  4972  00309C  23AD               	addwfc	(powf@j+1)& (0+255),f,b
  4973  00309E  504D               	movf	(??_powf+2)^0,w,c
  4974  0030A0  23AE               	addwfc	(powf@j+2)& (0+255),f,b
  4975  0030A2  504E               	movf	(??_powf+3)^0,w,c
  4976  0030A4  23AF               	addwfc	(powf@j+3)& (0+255),f,b
  4977  0030A6                     
  4978                           ; BSR set to: 1
  4979  0030A6  0E17               	movlw	23
  4980  0030A8  6E4B               	movwf	??_powf^0,c
  4981  0030AA  C1AC  F04C         	movff	powf@j,??_powf+1
  4982  0030AE  C1AD  F04D         	movff	powf@j+1,??_powf+2
  4983  0030B2  C1AE  F04E         	movff	powf@j+2,??_powf+3
  4984  0030B6  C1AF  F04F         	movff	powf@j+3,??_powf+4
  4985  0030BA                     u3765:
  4986  0030BA  664B               	tstfsz	??_powf^0,c
  4987  0030BC  EF62  F018         	goto	u3766
  4988  0030C0  EF6A  F018         	goto	u3767
  4989  0030C4                     u3766:
  4990  0030C4  344F               	rlcf	(??_powf+4)^0,w,c
  4991  0030C6  324F               	rrcf	(??_powf+4)^0,f,c
  4992  0030C8  324E               	rrcf	(??_powf+3)^0,f,c
  4993  0030CA  324D               	rrcf	(??_powf+2)^0,f,c
  4994  0030CC  324C               	rrcf	(??_powf+1)^0,f,c
  4995  0030CE  2E4B               	decfsz	??_powf^0,f,c
  4996  0030D0  EF5D  F018         	goto	u3765
  4997  0030D4                     u3767:
  4998  0030D4  BE4F               	btfsc	(??_powf+4)^0,7,c
  4999  0030D6  EF79  F018         	goto	u3770
  5000  0030DA  504F               	movf	(??_powf+4)^0,w,c
  5001  0030DC  104E               	iorwf	(??_powf+3)^0,w,c
  5002  0030DE  104D               	iorwf	(??_powf+2)^0,w,c
  5003  0030E0  E106               	bnz	u3771
  5004  0030E2  044C               	decf	(??_powf+1)^0,w,c
  5005  0030E4  B0D8               	btfsc	status,0,c
  5006  0030E6  EF77  F018         	goto	u3771
  5007  0030EA  EF79  F018         	goto	u3770
  5008  0030EE                     u3771:
  5009  0030EE  EF91  F018         	goto	l913
  5010  0030F2                     u3770:
  5011  0030F2  C1B4  F02A         	movff	powf@z,scalbnf@x
  5012  0030F6  C1B5  F02B         	movff	powf@z+1,scalbnf@x+1
  5013  0030FA  C1B6  F02C         	movff	powf@z+2,scalbnf@x+2
  5014  0030FE  C1B7  F02D         	movff	powf@z+3,scalbnf@x+3
  5015  003102  C17C  F02E         	movff	powf@n,scalbnf@n
  5016  003106  C17D  F02F         	movff	powf@n+1,scalbnf@n+1
  5017  00310A  EC5E  F021         	call	_scalbnf	;wreg free
  5018  00310E  C02A  F1B4         	movff	?_scalbnf,powf@z
  5019  003112  C02B  F1B5         	movff	?_scalbnf+1,powf@z+1
  5020  003116  C02C  F1B6         	movff	?_scalbnf+2,powf@z+2
  5021  00311A  C02D  F1B7         	movff	?_scalbnf+3,powf@z+3
  5022  00311E  EFA1  F018         	goto	l3418
  5023  003122                     l913:
  5024  003122  C1AC  F1B8         	movff	powf@j,powf@__xc8_float_word
  5025  003126  C1AD  F1B9         	movff	powf@j+1,powf@__xc8_float_word+1
  5026  00312A  C1AE  F1BA         	movff	powf@j+2,powf@__xc8_float_word+2
  5027  00312E  C1AF  F1BB         	movff	powf@j+3,powf@__xc8_float_word+3
  5028  003132  C1B8  F1B4         	movff	powf@__xc8_float_word,powf@z
  5029  003136  C1B9  F1B5         	movff	powf@__xc8_float_word+1,powf@z+1
  5030  00313A  C1BA  F1B6         	movff	powf@__xc8_float_word+2,powf@z+2
  5031  00313E  C1BB  F1B7         	movff	powf@__xc8_float_word+3,powf@z+3
  5032  003142                     l3418:
  5033  003142  C188  F011         	movff	powf@sn,___flmul@b
  5034  003146  C189  F012         	movff	powf@sn+1,___flmul@b+1
  5035  00314A  C18A  F013         	movff	powf@sn+2,___flmul@b+2
  5036  00314E  C18B  F014         	movff	powf@sn+3,___flmul@b+3
  5037  003152  C1B4  F015         	movff	powf@z,___flmul@a
  5038  003156  C1B5  F016         	movff	powf@z+1,___flmul@a+1
  5039  00315A  C1B6  F017         	movff	powf@z+2,___flmul@a+2
  5040  00315E  C1B7  F018         	movff	powf@z+3,___flmul@a+3
  5041  003162  EC7C  F01D         	call	___flmul	;wreg free
  5042  003166  C011  F084         	movff	?___flmul,?_powf
  5043  00316A  C012  F085         	movff	?___flmul+1,?_powf+1
  5044  00316E  C013  F086         	movff	?___flmul+2,?_powf+2
  5045  003172  C014  F087         	movff	?___flmul+3,?_powf+3
  5046  003176                     l801:
  5047  003176  0012               	return		;funcret
  5048  003178                     __end_of_powf:
  5049                           	callstack 0
  5050                           
  5051 ;; *************** function _sqrtf *****************
  5052 ;; Defined at:
  5053 ;;		line 22 in file "D:\MPLABxIDE\pic\sources\c99\common\sqrtf.c"
  5054 ;; Parameters:    Size  Location     Type
  5055 ;;  x               4   61[COMRAM] float 
  5056 ;; Auto vars:     Size  Location     Type
  5057 ;;  ix              4   32[BANK0 ] long 
  5058 ;;  r               4   28[BANK0 ] unsigned long 
  5059 ;;  m               4   24[BANK0 ] long 
  5060 ;;  z               4   20[BANK0 ] float 
  5061 ;;  t               4   16[BANK0 ] long 
  5062 ;;  q               4   12[BANK0 ] long 
  5063 ;;  __xc8_float_    4    8[BANK0 ] struct .
  5064 ;;  i               4    4[BANK0 ] long 
  5065 ;;  s               4    0[BANK0 ] long 
  5066 ;;  sign            4    0        long 
  5067 ;; Return value:  Size  Location     Type
  5068 ;;                  4   61[COMRAM] float 
  5069 ;; Registers used:
  5070 ;;		wreg, status,2, status,0, prodl, prodh, cstack
  5071 ;; Tracked objects:
  5072 ;;		On entry : 0/0
  5073 ;;		On exit  : 0/0
  5074 ;;		Unchanged: 0/0
  5075 ;; Data sizes:     COMRAM   BANK0   BANK1   BANK2   BANK3   BANK4   BANK5   BANK6   BANK7
  5076 ;;      Params:         4       0       0       0       0       0       0       0       0
  5077 ;;      Locals:         0      36       0       0       0       0       0       0       0
  5078 ;;      Temps:          5       0       0       0       0       0       0       0       0
  5079 ;;      Totals:         9      36       0       0       0       0       0       0       0
  5080 ;;Total ram usage:       45 bytes
  5081 ;; Hardware stack levels used: 1
  5082 ;; Hardware stack levels required when called: 1
  5083 ;; This function calls:
  5084 ;;		___fladd
  5085 ;;		___flge
  5086 ;;		___flmul
  5087 ;;		_nanf
  5088 ;; This function is called by:
  5089 ;;		_powf
  5090 ;; This function uses a non-reentrant model
  5091 ;;
  5092                           
  5093                           	psect	text5
  5094  003178                     __ptext5:
  5095                           	callstack 0
  5096  003178                     _sqrtf:
  5097                           	callstack 27
  5098  003178  C03E  F068         	movff	sqrtf@x,sqrtf@__xc8_float_word
  5099  00317C  C03F  F069         	movff	sqrtf@x+1,sqrtf@__xc8_float_word+1
  5100  003180  C040  F06A         	movff	sqrtf@x+2,sqrtf@__xc8_float_word+2
  5101  003184  C041  F06B         	movff	sqrtf@x+3,sqrtf@__xc8_float_word+3
  5102  003188  C068  F080         	movff	sqrtf@__xc8_float_word,sqrtf@ix
  5103  00318C  C069  F081         	movff	sqrtf@__xc8_float_word+1,sqrtf@ix+1
  5104  003190  C06A  F082         	movff	sqrtf@__xc8_float_word+2,sqrtf@ix+2
  5105  003194  C06B  F083         	movff	sqrtf@__xc8_float_word+3,sqrtf@ix+3
  5106  003198  0E00               	movlw	0
  5107  00319A  0100               	movlb	0	; () banked
  5108  00319C  1580               	andwf	sqrtf@ix& (0+255),w,b
  5109  00319E  6E42               	movwf	??_sqrtf^0,c
  5110  0031A0  0E00               	movlw	0
  5111  0031A2  1581               	andwf	(sqrtf@ix+1)& (0+255),w,b
  5112  0031A4  6E43               	movwf	(??_sqrtf+1)^0,c
  5113  0031A6  0E80               	movlw	128
  5114  0031A8  1582               	andwf	(sqrtf@ix+2)& (0+255),w,b
  5115  0031AA  6E44               	movwf	(??_sqrtf+2)^0,c
  5116  0031AC  0E7F               	movlw	127
  5117  0031AE  1583               	andwf	(sqrtf@ix+3)& (0+255),w,b
  5118  0031B0  6E45               	movwf	(??_sqrtf+3)^0,c
  5119  0031B2  0E80               	movlw	128
  5120  0031B4  1844               	xorwf	(??_sqrtf+2)^0,w,c
  5121  0031B6  E109               	bnz	u2991
  5122  0031B8  0E7F               	movlw	127
  5123  0031BA  1845               	xorwf	(??_sqrtf+3)^0,w,c
  5124  0031BC  1042               	iorwf	??_sqrtf^0,w,c
  5125  0031BE  1043               	iorwf	(??_sqrtf+1)^0,w,c
  5126  0031C0  A4D8               	btfss	status,2,c
  5127  0031C2  EFE5  F018         	goto	u2991
  5128  0031C6  EFE7  F018         	goto	u2990
  5129  0031CA                     u2991:
  5130  0031CA  EF15  F019         	goto	l2850
  5131  0031CE                     u2990:
  5132  0031CE                     
  5133                           ; BSR set to: 0
  5134  0031CE  C03E  F015         	movff	sqrtf@x,___flmul@a
  5135  0031D2  C03F  F016         	movff	sqrtf@x+1,___flmul@a+1
  5136  0031D6  C040  F017         	movff	sqrtf@x+2,___flmul@a+2
  5137  0031DA  C041  F018         	movff	sqrtf@x+3,___flmul@a+3
  5138  0031DE  C03E  F011         	movff	sqrtf@x,___flmul@b
  5139  0031E2  C03F  F012         	movff	sqrtf@x+1,___flmul@b+1
  5140  0031E6  C040  F013         	movff	sqrtf@x+2,___flmul@b+2
  5141  0031EA  C041  F014         	movff	sqrtf@x+3,___flmul@b+3
  5142  0031EE  EC7C  F01D         	call	___flmul	;wreg free
  5143  0031F2  C011  F001         	movff	?___flmul,___fladd@b
  5144  0031F6  C012  F002         	movff	?___flmul+1,___fladd@b+1
  5145  0031FA  C013  F003         	movff	?___flmul+2,___fladd@b+2
  5146  0031FE  C014  F004         	movff	?___flmul+3,___fladd@b+3
  5147  003202  C03E  F005         	movff	sqrtf@x,___fladd@a
  5148  003206  C03F  F006         	movff	sqrtf@x+1,___fladd@a+1
  5149  00320A  C040  F007         	movff	sqrtf@x+2,___fladd@a+2
  5150  00320E  C041  F008         	movff	sqrtf@x+3,___fladd@a+3
  5151  003212  EC1C  F01B         	call	___fladd	;wreg free
  5152  003216  C001  F03E         	movff	?___fladd,?_sqrtf
  5153  00321A  C002  F03F         	movff	?___fladd+1,?_sqrtf+1
  5154  00321E  C003  F040         	movff	?___fladd+2,?_sqrtf+2
  5155  003222  C004  F041         	movff	?___fladd+3,?_sqrtf+3
  5156  003226  EF1B  F01B         	goto	l951
  5157  00322A                     l2850:
  5158                           
  5159                           ; BSR set to: 0
  5160  00322A  BF83               	btfsc	(sqrtf@ix+3)& (0+255),7,b
  5161  00322C  EF24  F019         	goto	u3000
  5162  003230  5183               	movf	(sqrtf@ix+3)& (0+255),w,b
  5163  003232  1182               	iorwf	(sqrtf@ix+2)& (0+255),w,b
  5164  003234  1181               	iorwf	(sqrtf@ix+1)& (0+255),w,b
  5165  003236  E106               	bnz	u3001
  5166  003238  0580               	decf	sqrtf@ix& (0+255),w,b
  5167  00323A  B0D8               	btfsc	status,0,c
  5168  00323C  EF22  F019         	goto	u3001
  5169  003240  EF24  F019         	goto	u3000
  5170  003244                     u3001:
  5171  003244  EF60  F019         	goto	l2864
  5172  003248                     u3000:
  5173  003248                     
  5174                           ; BSR set to: 0
  5175  003248  0EFF               	movlw	255
  5176  00324A  1580               	andwf	sqrtf@ix& (0+255),w,b
  5177  00324C  6E42               	movwf	??_sqrtf^0,c
  5178  00324E  0EFF               	movlw	255
  5179  003250  1581               	andwf	(sqrtf@ix+1)& (0+255),w,b
  5180  003252  6E43               	movwf	(??_sqrtf+1)^0,c
  5181  003254  0EFF               	movlw	255
  5182  003256  1582               	andwf	(sqrtf@ix+2)& (0+255),w,b
  5183  003258  6E44               	movwf	(??_sqrtf+2)^0,c
  5184  00325A  0E7F               	movlw	127
  5185  00325C  1583               	andwf	(sqrtf@ix+3)& (0+255),w,b
  5186  00325E  6E45               	movwf	(??_sqrtf+3)^0,c
  5187  003260  5042               	movf	??_sqrtf^0,w,c
  5188  003262  1043               	iorwf	(??_sqrtf+1)^0,w,c
  5189  003264  1044               	iorwf	(??_sqrtf+2)^0,w,c
  5190  003266  1045               	iorwf	(??_sqrtf+3)^0,w,c
  5191  003268  A4D8               	btfss	status,2,c
  5192  00326A  EF39  F019         	goto	u3011
  5193  00326E  EF3B  F019         	goto	u3010
  5194  003272                     u3011:
  5195  003272  EF45  F019         	goto	l2856
  5196  003276                     u3010:
  5197  003276                     
  5198                           ; BSR set to: 0
  5199  003276  C03E  F03E         	movff	sqrtf@x,?_sqrtf
  5200  00327A  C03F  F03F         	movff	sqrtf@x+1,?_sqrtf+1
  5201  00327E  C040  F040         	movff	sqrtf@x+2,?_sqrtf+2
  5202  003282  C041  F041         	movff	sqrtf@x+3,?_sqrtf+3
  5203  003286  EF1B  F01B         	goto	l951
  5204  00328A                     l2856:
  5205                           
  5206                           ; BSR set to: 0
  5207  00328A  BF83               	btfsc	(sqrtf@ix+3)& (0+255),7,b
  5208  00328C  EF4C  F019         	goto	u3020
  5209  003290  EF4A  F019         	goto	u3021
  5210  003294                     u3021:
  5211  003294  EF60  F019         	goto	l2864
  5212  003298                     u3020:
  5213  003298                     
  5214                           ; BSR set to: 0
  5215  003298  0E00               	movlw	0
  5216  00329A  6F97               	movwf	(_errno+1)& (0+255),b
  5217  00329C  0E21               	movlw	33
  5218  00329E  6F96               	movwf	_errno& (0+255),b
  5219  0032A0                     
  5220                           ; BSR set to: 0
  5221  0032A0  0E7D               	movlw	low STR_1
  5222  0032A2  6E01               	movwf	nanf@s^0,c
  5223  0032A4  0E08               	movlw	high STR_1
  5224  0032A6  6E02               	movwf	(nanf@s+1)^0,c
  5225  0032A8  EC80  F026         	call	_nanf	;wreg free
  5226  0032AC  C001  F03E         	movff	?_nanf,?_sqrtf
  5227  0032B0  C002  F03F         	movff	?_nanf+1,?_sqrtf+1
  5228  0032B4  C003  F040         	movff	?_nanf+2,?_sqrtf+2
  5229  0032B8  C004  F041         	movff	?_nanf+3,?_sqrtf+3
  5230  0032BC  EF1B  F01B         	goto	l951
  5231  0032C0                     l2864:
  5232                           
  5233                           ; BSR set to: 0
  5234  0032C0  0E17               	movlw	23
  5235  0032C2  6E42               	movwf	??_sqrtf^0,c
  5236  0032C4  C080  F043         	movff	sqrtf@ix,??_sqrtf+1
  5237  0032C8  C081  F044         	movff	sqrtf@ix+1,??_sqrtf+2
  5238  0032CC  C082  F045         	movff	sqrtf@ix+2,??_sqrtf+3
  5239  0032D0  C083  F046         	movff	sqrtf@ix+3,??_sqrtf+4
  5240  0032D4                     u3035:
  5241  0032D4  6642               	tstfsz	??_sqrtf^0,c
  5242  0032D6  EF6F  F019         	goto	u3036
  5243  0032DA  EF77  F019         	goto	u3037
  5244  0032DE                     u3036:
  5245  0032DE  3446               	rlcf	(??_sqrtf+4)^0,w,c
  5246  0032E0  3246               	rrcf	(??_sqrtf+4)^0,f,c
  5247  0032E2  3245               	rrcf	(??_sqrtf+3)^0,f,c
  5248  0032E4  3244               	rrcf	(??_sqrtf+2)^0,f,c
  5249  0032E6  3243               	rrcf	(??_sqrtf+1)^0,f,c
  5250  0032E8  2E42               	decfsz	??_sqrtf^0,f,c
  5251  0032EA  EF6A  F019         	goto	u3035
  5252  0032EE                     u3037:
  5253  0032EE  C043  F078         	movff	??_sqrtf+1,sqrtf@m
  5254  0032F2  C044  F079         	movff	??_sqrtf+2,sqrtf@m+1
  5255  0032F6  C045  F07A         	movff	??_sqrtf+3,sqrtf@m+2
  5256  0032FA  C046  F07B         	movff	??_sqrtf+4,sqrtf@m+3
  5257  0032FE  0100               	movlb	0	; () banked
  5258  003300  5178               	movf	sqrtf@m& (0+255),w,b
  5259  003302  1179               	iorwf	(sqrtf@m+1)& (0+255),w,b
  5260  003304  117A               	iorwf	(sqrtf@m+2)& (0+255),w,b
  5261  003306  117B               	iorwf	(sqrtf@m+3)& (0+255),w,b
  5262  003308  A4D8               	btfss	status,2,c
  5263  00330A  EF89  F019         	goto	u3041
  5264  00330E  EF8B  F019         	goto	u3040
  5265  003312                     u3041:
  5266  003312  EFBB  F019         	goto	l955
  5267  003316                     u3040:
  5268  003316                     
  5269                           ; BSR set to: 0
  5270  003316  0E00               	movlw	0
  5271  003318  6F64               	movwf	sqrtf@i& (0+255),b
  5272  00331A  0E00               	movlw	0
  5273  00331C  6F65               	movwf	(sqrtf@i+1)& (0+255),b
  5274  00331E  0E00               	movlw	0
  5275  003320  6F66               	movwf	(sqrtf@i+2)& (0+255),b
  5276  003322  0E00               	movlw	0
  5277  003324  6F67               	movwf	(sqrtf@i+3)& (0+255),b
  5278  003326  EFA0  F019         	goto	l2872
  5279  00332A                     l2868:
  5280                           
  5281                           ; BSR set to: 0
  5282  00332A  90D8               	bcf	status,0,c
  5283  00332C  3780               	rlcf	sqrtf@ix& (0+255),f,b
  5284  00332E  3781               	rlcf	(sqrtf@ix+1)& (0+255),f,b
  5285  003330  3782               	rlcf	(sqrtf@ix+2)& (0+255),f,b
  5286  003332  3783               	rlcf	(sqrtf@ix+3)& (0+255),f,b
  5287  003334                     
  5288                           ; BSR set to: 0
  5289  003334  0E01               	movlw	1
  5290  003336  2764               	addwf	sqrtf@i& (0+255),f,b
  5291  003338  0E00               	movlw	0
  5292  00333A  2365               	addwfc	(sqrtf@i+1)& (0+255),f,b
  5293  00333C  2366               	addwfc	(sqrtf@i+2)& (0+255),f,b
  5294  00333E  2367               	addwfc	(sqrtf@i+3)& (0+255),f,b
  5295  003340                     l2872:
  5296                           
  5297                           ; BSR set to: 0
  5298  003340  AF82               	btfss	(sqrtf@ix+2)& (0+255),7,b
  5299  003342  EFA5  F019         	goto	u3051
  5300  003346  EFA7  F019         	goto	u3050
  5301  00334A                     u3051:
  5302  00334A  EF95  F019         	goto	l2868
  5303  00334E                     u3050:
  5304  00334E                     
  5305                           ; BSR set to: 0
  5306  00334E  0EFF               	movlw	255
  5307  003350  2564               	addwf	sqrtf@i& (0+255),w,b
  5308  003352  6E42               	movwf	??_sqrtf^0,c
  5309  003354  0EFF               	movlw	255
  5310  003356  2165               	addwfc	(sqrtf@i+1)& (0+255),w,b
  5311  003358  6E43               	movwf	(??_sqrtf+1)^0,c
  5312  00335A  0EFF               	movlw	255
  5313  00335C  2166               	addwfc	(sqrtf@i+2)& (0+255),w,b
  5314  00335E  6E44               	movwf	(??_sqrtf+2)^0,c
  5315  003360  0EFF               	movlw	255
  5316  003362  2167               	addwfc	(sqrtf@i+3)& (0+255),w,b
  5317  003364  6E45               	movwf	(??_sqrtf+3)^0,c
  5318  003366  5042               	movf	??_sqrtf^0,w,c
  5319  003368  5F78               	subwf	sqrtf@m& (0+255),f,b
  5320  00336A  5043               	movf	(??_sqrtf+1)^0,w,c
  5321  00336C  5B79               	subwfb	(sqrtf@m+1)& (0+255),f,b
  5322  00336E  5044               	movf	(??_sqrtf+2)^0,w,c
  5323  003370  5B7A               	subwfb	(sqrtf@m+2)& (0+255),f,b
  5324  003372  5045               	movf	(??_sqrtf+3)^0,w,c
  5325  003374  5B7B               	subwfb	(sqrtf@m+3)& (0+255),f,b
  5326  003376                     l955:
  5327                           
  5328                           ; BSR set to: 0
  5329  003376  0E81               	movlw	129
  5330  003378  2778               	addwf	sqrtf@m& (0+255),f,b
  5331  00337A  0EFF               	movlw	255
  5332  00337C  2379               	addwfc	(sqrtf@m+1)& (0+255),f,b
  5333  00337E  0EFF               	movlw	255
  5334  003380  237A               	addwfc	(sqrtf@m+2)& (0+255),f,b
  5335  003382  0EFF               	movlw	255
  5336  003384  237B               	addwfc	(sqrtf@m+3)& (0+255),f,b
  5337  003386  0EFF               	movlw	255
  5338  003388  1580               	andwf	sqrtf@ix& (0+255),w,b
  5339  00338A  6E42               	movwf	??_sqrtf^0,c
  5340  00338C  0EFF               	movlw	255
  5341  00338E  1581               	andwf	(sqrtf@ix+1)& (0+255),w,b
  5342  003390  6E43               	movwf	(??_sqrtf+1)^0,c
  5343  003392  0E7F               	movlw	127
  5344  003394  1582               	andwf	(sqrtf@ix+2)& (0+255),w,b
  5345  003396  6E44               	movwf	(??_sqrtf+2)^0,c
  5346  003398  0E00               	movlw	0
  5347  00339A  1583               	andwf	(sqrtf@ix+3)& (0+255),w,b
  5348  00339C  6E45               	movwf	(??_sqrtf+3)^0,c
  5349  00339E  0E00               	movlw	0
  5350  0033A0  1042               	iorwf	??_sqrtf^0,w,c
  5351  0033A2  6F80               	movwf	sqrtf@ix& (0+255),b
  5352  0033A4  0E00               	movlw	0
  5353  0033A6  1043               	iorwf	(??_sqrtf+1)^0,w,c
  5354  0033A8  6F81               	movwf	(sqrtf@ix+1)& (0+255),b
  5355  0033AA  0E80               	movlw	128
  5356  0033AC  1044               	iorwf	(??_sqrtf+2)^0,w,c
  5357  0033AE  6F82               	movwf	(sqrtf@ix+2)& (0+255),b
  5358  0033B0  0E00               	movlw	0
  5359  0033B2  1045               	iorwf	(??_sqrtf+3)^0,w,c
  5360  0033B4  6F83               	movwf	(sqrtf@ix+3)& (0+255),b
  5361  0033B6                     
  5362                           ; BSR set to: 0
  5363  0033B6  A178               	btfss	sqrtf@m& (0+255),0,b
  5364  0033B8  EFE0  F019         	goto	u3061
  5365  0033BC  EFE2  F019         	goto	u3060
  5366  0033C0                     u3061:
  5367  0033C0  EFEA  F019         	goto	l959
  5368  0033C4                     u3060:
  5369  0033C4                     
  5370                           ; BSR set to: 0
  5371  0033C4  5180               	movf	sqrtf@ix& (0+255),w,b
  5372  0033C6  2780               	addwf	sqrtf@ix& (0+255),f,b
  5373  0033C8  5181               	movf	(sqrtf@ix+1)& (0+255),w,b
  5374  0033CA  2381               	addwfc	(sqrtf@ix+1)& (0+255),f,b
  5375  0033CC  5182               	movf	(sqrtf@ix+2)& (0+255),w,b
  5376  0033CE  2382               	addwfc	(sqrtf@ix+2)& (0+255),f,b
  5377  0033D0  5183               	movf	(sqrtf@ix+3)& (0+255),w,b
  5378  0033D2  2383               	addwfc	(sqrtf@ix+3)& (0+255),f,b
  5379  0033D4                     l959:
  5380                           
  5381                           ; BSR set to: 0
  5382  0033D4  357B               	rlcf	(sqrtf@m+3)& (0+255),w,b
  5383  0033D6  337B               	rrcf	(sqrtf@m+3)& (0+255),f,b
  5384  0033D8  337A               	rrcf	(sqrtf@m+2)& (0+255),f,b
  5385  0033DA  3379               	rrcf	(sqrtf@m+1)& (0+255),f,b
  5386  0033DC  3378               	rrcf	sqrtf@m& (0+255),f,b
  5387  0033DE  5180               	movf	sqrtf@ix& (0+255),w,b
  5388  0033E0  2780               	addwf	sqrtf@ix& (0+255),f,b
  5389  0033E2  5181               	movf	(sqrtf@ix+1)& (0+255),w,b
  5390  0033E4  2381               	addwfc	(sqrtf@ix+1)& (0+255),f,b
  5391  0033E6  5182               	movf	(sqrtf@ix+2)& (0+255),w,b
  5392  0033E8  2382               	addwfc	(sqrtf@ix+2)& (0+255),f,b
  5393  0033EA  5183               	movf	(sqrtf@ix+3)& (0+255),w,b
  5394  0033EC  2383               	addwfc	(sqrtf@ix+3)& (0+255),f,b
  5395  0033EE                     
  5396                           ; BSR set to: 0
  5397  0033EE  0E00               	movlw	0
  5398  0033F0  6F60               	movwf	sqrtf@s& (0+255),b
  5399  0033F2  0E00               	movlw	0
  5400  0033F4  6F61               	movwf	(sqrtf@s+1)& (0+255),b
  5401  0033F6  0E00               	movlw	0
  5402  0033F8  6F62               	movwf	(sqrtf@s+2)& (0+255),b
  5403  0033FA  0E00               	movlw	0
  5404  0033FC  6F63               	movwf	(sqrtf@s+3)& (0+255),b
  5405  0033FE  C060  F06C         	movff	sqrtf@s,sqrtf@q
  5406  003402  C061  F06D         	movff	sqrtf@s+1,sqrtf@q+1
  5407  003406  C062  F06E         	movff	sqrtf@s+2,sqrtf@q+2
  5408  00340A  C063  F06F         	movff	sqrtf@s+3,sqrtf@q+3
  5409  00340E                     
  5410                           ; BSR set to: 0
  5411  00340E  0E00               	movlw	0
  5412  003410  6F7C               	movwf	sqrtf@r& (0+255),b
  5413  003412  0E00               	movlw	0
  5414  003414  6F7D               	movwf	(sqrtf@r+1)& (0+255),b
  5415  003416  0E00               	movlw	0
  5416  003418  6F7E               	movwf	(sqrtf@r+2)& (0+255),b
  5417  00341A  0E01               	movlw	1
  5418  00341C  6F7F               	movwf	(sqrtf@r+3)& (0+255),b
  5419  00341E  EF59  F01A         	goto	l2890
  5420  003422                     l2884:
  5421                           
  5422                           ; BSR set to: 0
  5423  003422  5160               	movf	sqrtf@s& (0+255),w,b
  5424  003424  257C               	addwf	sqrtf@r& (0+255),w,b
  5425  003426  6F70               	movwf	sqrtf@t& (0+255),b
  5426  003428  5161               	movf	(sqrtf@s+1)& (0+255),w,b
  5427  00342A  217D               	addwfc	(sqrtf@r+1)& (0+255),w,b
  5428  00342C  6F71               	movwf	(sqrtf@t+1)& (0+255),b
  5429  00342E  5162               	movf	(sqrtf@s+2)& (0+255),w,b
  5430  003430  217E               	addwfc	(sqrtf@r+2)& (0+255),w,b
  5431  003432  6F72               	movwf	(sqrtf@t+2)& (0+255),b
  5432  003434  5163               	movf	(sqrtf@s+3)& (0+255),w,b
  5433  003436  217F               	addwfc	(sqrtf@r+3)& (0+255),w,b
  5434  003438  6F73               	movwf	(sqrtf@t+3)& (0+255),b
  5435  00343A  5170               	movf	sqrtf@t& (0+255),w,b
  5436  00343C  5D80               	subwf	sqrtf@ix& (0+255),w,b
  5437  00343E  5171               	movf	(sqrtf@t+1)& (0+255),w,b
  5438  003440  5981               	subwfb	(sqrtf@ix+1)& (0+255),w,b
  5439  003442  5172               	movf	(sqrtf@t+2)& (0+255),w,b
  5440  003444  5982               	subwfb	(sqrtf@ix+2)& (0+255),w,b
  5441  003446  5183               	movf	(sqrtf@ix+3)& (0+255),w,b
  5442  003448  0A80               	xorlw	128
  5443  00344A  6E42               	movwf	??_sqrtf^0,c
  5444  00344C  5173               	movf	(sqrtf@t+3)& (0+255),w,b
  5445  00344E  0A80               	xorlw	128
  5446  003450  5842               	subwfb	??_sqrtf^0,w,c
  5447  003452  A0D8               	btfss	status,0,c
  5448  003454  EF2E  F01A         	goto	u3071
  5449  003458  EF30  F01A         	goto	u3070
  5450  00345C                     u3071:
  5451  00345C  EF4C  F01A         	goto	l962
  5452  003460                     u3070:
  5453  003460                     
  5454                           ; BSR set to: 0
  5455  003460  5170               	movf	sqrtf@t& (0+255),w,b
  5456  003462  257C               	addwf	sqrtf@r& (0+255),w,b
  5457  003464  6F60               	movwf	sqrtf@s& (0+255),b
  5458  003466  5171               	movf	(sqrtf@t+1)& (0+255),w,b
  5459  003468  217D               	addwfc	(sqrtf@r+1)& (0+255),w,b
  5460  00346A  6F61               	movwf	(sqrtf@s+1)& (0+255),b
  5461  00346C  5172               	movf	(sqrtf@t+2)& (0+255),w,b
  5462  00346E  217E               	addwfc	(sqrtf@r+2)& (0+255),w,b
  5463  003470  6F62               	movwf	(sqrtf@s+2)& (0+255),b
  5464  003472  5173               	movf	(sqrtf@t+3)& (0+255),w,b
  5465  003474  217F               	addwfc	(sqrtf@r+3)& (0+255),w,b
  5466  003476  6F63               	movwf	(sqrtf@s+3)& (0+255),b
  5467  003478  5170               	movf	sqrtf@t& (0+255),w,b
  5468  00347A  5F80               	subwf	sqrtf@ix& (0+255),f,b
  5469  00347C  5171               	movf	(sqrtf@t+1)& (0+255),w,b
  5470  00347E  5B81               	subwfb	(sqrtf@ix+1)& (0+255),f,b
  5471  003480  5172               	movf	(sqrtf@t+2)& (0+255),w,b
  5472  003482  5B82               	subwfb	(sqrtf@ix+2)& (0+255),f,b
  5473  003484  5173               	movf	(sqrtf@t+3)& (0+255),w,b
  5474  003486  5B83               	subwfb	(sqrtf@ix+3)& (0+255),f,b
  5475  003488  517C               	movf	sqrtf@r& (0+255),w,b
  5476  00348A  276C               	addwf	sqrtf@q& (0+255),f,b
  5477  00348C  517D               	movf	(sqrtf@r+1)& (0+255),w,b
  5478  00348E  236D               	addwfc	(sqrtf@q+1)& (0+255),f,b
  5479  003490  517E               	movf	(sqrtf@r+2)& (0+255),w,b
  5480  003492  236E               	addwfc	(sqrtf@q+2)& (0+255),f,b
  5481  003494  517F               	movf	(sqrtf@r+3)& (0+255),w,b
  5482  003496  236F               	addwfc	(sqrtf@q+3)& (0+255),f,b
  5483  003498                     l962:
  5484                           
  5485                           ; BSR set to: 0
  5486  003498  5180               	movf	sqrtf@ix& (0+255),w,b
  5487  00349A  2780               	addwf	sqrtf@ix& (0+255),f,b
  5488  00349C  5181               	movf	(sqrtf@ix+1)& (0+255),w,b
  5489  00349E  2381               	addwfc	(sqrtf@ix+1)& (0+255),f,b
  5490  0034A0  5182               	movf	(sqrtf@ix+2)& (0+255),w,b
  5491  0034A2  2382               	addwfc	(sqrtf@ix+2)& (0+255),f,b
  5492  0034A4  5183               	movf	(sqrtf@ix+3)& (0+255),w,b
  5493  0034A6  2383               	addwfc	(sqrtf@ix+3)& (0+255),f,b
  5494  0034A8                     
  5495                           ; BSR set to: 0
  5496  0034A8  90D8               	bcf	status,0,c
  5497  0034AA  337F               	rrcf	(sqrtf@r+3)& (0+255),f,b
  5498  0034AC  337E               	rrcf	(sqrtf@r+2)& (0+255),f,b
  5499  0034AE  337D               	rrcf	(sqrtf@r+1)& (0+255),f,b
  5500  0034B0  337C               	rrcf	sqrtf@r& (0+255),f,b
  5501  0034B2                     l2890:
  5502                           
  5503                           ; BSR set to: 0
  5504  0034B2  517C               	movf	sqrtf@r& (0+255),w,b
  5505  0034B4  117D               	iorwf	(sqrtf@r+1)& (0+255),w,b
  5506  0034B6  117E               	iorwf	(sqrtf@r+2)& (0+255),w,b
  5507  0034B8  117F               	iorwf	(sqrtf@r+3)& (0+255),w,b
  5508  0034BA  A4D8               	btfss	status,2,c
  5509  0034BC  EF62  F01A         	goto	u3081
  5510  0034C0  EF64  F01A         	goto	u3080
  5511  0034C4                     u3081:
  5512  0034C4  EF11  F01A         	goto	l2884
  5513  0034C8                     u3080:
  5514  0034C8                     
  5515                           ; BSR set to: 0
  5516  0034C8  5180               	movf	sqrtf@ix& (0+255),w,b
  5517  0034CA  1181               	iorwf	(sqrtf@ix+1)& (0+255),w,b
  5518  0034CC  1182               	iorwf	(sqrtf@ix+2)& (0+255),w,b
  5519  0034CE  1183               	iorwf	(sqrtf@ix+3)& (0+255),w,b
  5520  0034D0  B4D8               	btfsc	status,2,c
  5521  0034D2  EF6D  F01A         	goto	u3091
  5522  0034D6  EF6F  F01A         	goto	u3090
  5523  0034DA                     u3091:
  5524  0034DA  EFD0  F01A         	goto	l964
  5525  0034DE                     u3090:
  5526  0034DE                     
  5527                           ; BSR set to: 0
  5528  0034DE  0E00               	movlw	0
  5529  0034E0  6F74               	movwf	sqrtf@z& (0+255),b
  5530  0034E2  0E00               	movlw	0
  5531  0034E4  6F75               	movwf	(sqrtf@z+1)& (0+255),b
  5532  0034E6  0E80               	movlw	128
  5533  0034E8  6F76               	movwf	(sqrtf@z+2)& (0+255),b
  5534  0034EA  0E3F               	movlw	63
  5535  0034EC  6F77               	movwf	(sqrtf@z+3)& (0+255),b
  5536  0034EE                     
  5537                           ; BSR set to: 0
  5538  0034EE  C074  F032         	movff	sqrtf@z,___flge@ff1
  5539  0034F2  C075  F033         	movff	sqrtf@z+1,___flge@ff1+1
  5540  0034F6  C076  F034         	movff	sqrtf@z+2,___flge@ff1+2
  5541  0034FA  C077  F035         	movff	sqrtf@z+3,___flge@ff1+3
  5542  0034FE  0E00               	movlw	0
  5543  003500  6E36               	movwf	___flge@ff2^0,c
  5544  003502  0E00               	movlw	0
  5545  003504  6E37               	movwf	(___flge@ff2+1)^0,c
  5546  003506  0E80               	movlw	128
  5547  003508  6E38               	movwf	(___flge@ff2+2)^0,c
  5548  00350A  0E3F               	movlw	63
  5549  00350C  6E39               	movwf	(___flge@ff2+3)^0,c
  5550  00350E  ECB7  F024         	call	___flge	;wreg free
  5551  003512  A0D8               	btfss	status,0,c
  5552  003514  EF8E  F01A         	goto	u3101
  5553  003518  EF90  F01A         	goto	u3100
  5554  00351C                     u3101:
  5555  00351C  EFD0  F01A         	goto	l964
  5556  003520                     u3100:
  5557  003520  0E00               	movlw	0
  5558  003522  0100               	movlb	0	; () banked
  5559  003524  6F74               	movwf	sqrtf@z& (0+255),b
  5560  003526  0E00               	movlw	0
  5561  003528  6F75               	movwf	(sqrtf@z+1)& (0+255),b
  5562  00352A  0E80               	movlw	128
  5563  00352C  6F76               	movwf	(sqrtf@z+2)& (0+255),b
  5564  00352E  0E3F               	movlw	63
  5565  003530  6F77               	movwf	(sqrtf@z+3)& (0+255),b
  5566  003532                     
  5567                           ; BSR set to: 0
  5568  003532  0E00               	movlw	0
  5569  003534  6E32               	movwf	___flge@ff1^0,c
  5570  003536  0E00               	movlw	0
  5571  003538  6E33               	movwf	(___flge@ff1+1)^0,c
  5572  00353A  0E80               	movlw	128
  5573  00353C  6E34               	movwf	(___flge@ff1+2)^0,c
  5574  00353E  0E3F               	movlw	63
  5575  003540  6E35               	movwf	(___flge@ff1+3)^0,c
  5576  003542  C074  F036         	movff	sqrtf@z,___flge@ff2
  5577  003546  C075  F037         	movff	sqrtf@z+1,___flge@ff2+1
  5578  00354A  C076  F038         	movff	sqrtf@z+2,___flge@ff2+2
  5579  00354E  C077  F039         	movff	sqrtf@z+3,___flge@ff2+3
  5580  003552  ECB7  F024         	call	___flge	;wreg free
  5581  003556  B0D8               	btfsc	status,0,c
  5582  003558  EFB0  F01A         	goto	u3111
  5583  00355C  EFB2  F01A         	goto	u3110
  5584  003560                     u3111:
  5585  003560  EFBB  F01A         	goto	l2904
  5586  003564                     u3110:
  5587  003564  0E02               	movlw	2
  5588  003566  0100               	movlb	0	; () banked
  5589  003568  276C               	addwf	sqrtf@q& (0+255),f,b
  5590  00356A  0E00               	movlw	0
  5591  00356C  236D               	addwfc	(sqrtf@q+1)& (0+255),f,b
  5592  00356E  236E               	addwfc	(sqrtf@q+2)& (0+255),f,b
  5593  003570  236F               	addwfc	(sqrtf@q+3)& (0+255),f,b
  5594  003572  EFD0  F01A         	goto	l964
  5595  003576                     l2904:
  5596  003576  0E01               	movlw	1
  5597  003578  0100               	movlb	0	; () banked
  5598  00357A  156C               	andwf	sqrtf@q& (0+255),w,b
  5599  00357C  6E42               	movwf	??_sqrtf^0,c
  5600  00357E  0E00               	movlw	0
  5601  003580  156D               	andwf	(sqrtf@q+1)& (0+255),w,b
  5602  003582  6E43               	movwf	(??_sqrtf+1)^0,c
  5603  003584  0E00               	movlw	0
  5604  003586  156E               	andwf	(sqrtf@q+2)& (0+255),w,b
  5605  003588  6E44               	movwf	(??_sqrtf+2)^0,c
  5606  00358A  0E00               	movlw	0
  5607  00358C  156F               	andwf	(sqrtf@q+3)& (0+255),w,b
  5608  00358E  6E45               	movwf	(??_sqrtf+3)^0,c
  5609  003590  5042               	movf	??_sqrtf^0,w,c
  5610  003592  276C               	addwf	sqrtf@q& (0+255),f,b
  5611  003594  5043               	movf	(??_sqrtf+1)^0,w,c
  5612  003596  236D               	addwfc	(sqrtf@q+1)& (0+255),f,b
  5613  003598  5044               	movf	(??_sqrtf+2)^0,w,c
  5614  00359A  236E               	addwfc	(sqrtf@q+2)& (0+255),f,b
  5615  00359C  5045               	movf	(??_sqrtf+3)^0,w,c
  5616  00359E  236F               	addwfc	(sqrtf@q+3)& (0+255),f,b
  5617  0035A0                     l964:
  5618  0035A0  C06C  F042         	movff	sqrtf@q,??_sqrtf
  5619  0035A4  C06D  F043         	movff	sqrtf@q+1,??_sqrtf+1
  5620  0035A8  C06E  F044         	movff	sqrtf@q+2,??_sqrtf+2
  5621  0035AC  C06F  F045         	movff	sqrtf@q+3,??_sqrtf+3
  5622  0035B0  3445               	rlcf	(??_sqrtf+3)^0,w,c
  5623  0035B2  3245               	rrcf	(??_sqrtf+3)^0,f,c
  5624  0035B4  3244               	rrcf	(??_sqrtf+2)^0,f,c
  5625  0035B6  3243               	rrcf	(??_sqrtf+1)^0,f,c
  5626  0035B8  3242               	rrcf	??_sqrtf^0,f,c
  5627  0035BA  0E00               	movlw	0
  5628  0035BC  2442               	addwf	??_sqrtf^0,w,c
  5629  0035BE  0100               	movlb	0	; () banked
  5630  0035C0  6F80               	movwf	sqrtf@ix& (0+255),b
  5631  0035C2  0E00               	movlw	0
  5632  0035C4  2043               	addwfc	(??_sqrtf+1)^0,w,c
  5633  0035C6  6F81               	movwf	(sqrtf@ix+1)& (0+255),b
  5634  0035C8  0E00               	movlw	0
  5635  0035CA  2044               	addwfc	(??_sqrtf+2)^0,w,c
  5636  0035CC  6F82               	movwf	(sqrtf@ix+2)& (0+255),b
  5637  0035CE  0E3F               	movlw	63
  5638  0035D0  2045               	addwfc	(??_sqrtf+3)^0,w,c
  5639  0035D2  6F83               	movwf	(sqrtf@ix+3)& (0+255),b
  5640  0035D4  C078  F042         	movff	sqrtf@m,??_sqrtf
  5641  0035D8  C079  F043         	movff	sqrtf@m+1,??_sqrtf+1
  5642  0035DC  C07A  F044         	movff	sqrtf@m+2,??_sqrtf+2
  5643  0035E0  C07B  F045         	movff	sqrtf@m+3,??_sqrtf+3
  5644  0035E4  0E17               	movlw	23
  5645  0035E6                     u3125:
  5646  0035E6  90D8               	bcf	status,0,c
  5647  0035E8  3642               	rlcf	??_sqrtf^0,f,c
  5648  0035EA  3643               	rlcf	(??_sqrtf+1)^0,f,c
  5649  0035EC  3644               	rlcf	(??_sqrtf+2)^0,f,c
  5650  0035EE  3645               	rlcf	(??_sqrtf+3)^0,f,c
  5651  0035F0  2EE8               	decfsz	wreg,f,c
  5652  0035F2  EFF3  F01A         	goto	u3125
  5653  0035F6  5042               	movf	??_sqrtf^0,w,c
  5654  0035F8  2780               	addwf	sqrtf@ix& (0+255),f,b
  5655  0035FA  5043               	movf	(??_sqrtf+1)^0,w,c
  5656  0035FC  2381               	addwfc	(sqrtf@ix+1)& (0+255),f,b
  5657  0035FE  5044               	movf	(??_sqrtf+2)^0,w,c
  5658  003600  2382               	addwfc	(sqrtf@ix+2)& (0+255),f,b
  5659  003602  5045               	movf	(??_sqrtf+3)^0,w,c
  5660  003604  2383               	addwfc	(sqrtf@ix+3)& (0+255),f,b
  5661  003606                     
  5662                           ; BSR set to: 0
  5663  003606  C080  F068         	movff	sqrtf@ix,sqrtf@__xc8_float_word
  5664  00360A  C081  F069         	movff	sqrtf@ix+1,sqrtf@__xc8_float_word+1
  5665  00360E  C082  F06A         	movff	sqrtf@ix+2,sqrtf@__xc8_float_word+2
  5666  003612  C083  F06B         	movff	sqrtf@ix+3,sqrtf@__xc8_float_word+3
  5667  003616                     
  5668                           ; BSR set to: 0
  5669  003616  C068  F074         	movff	sqrtf@__xc8_float_word,sqrtf@z
  5670  00361A  C069  F075         	movff	sqrtf@__xc8_float_word+1,sqrtf@z+1
  5671  00361E  C06A  F076         	movff	sqrtf@__xc8_float_word+2,sqrtf@z+2
  5672  003622  C06B  F077         	movff	sqrtf@__xc8_float_word+3,sqrtf@z+3
  5673  003626                     
  5674                           ; BSR set to: 0
  5675  003626  C074  F03E         	movff	sqrtf@z,?_sqrtf
  5676  00362A  C075  F03F         	movff	sqrtf@z+1,?_sqrtf+1
  5677  00362E  C076  F040         	movff	sqrtf@z+2,?_sqrtf+2
  5678  003632  C077  F041         	movff	sqrtf@z+3,?_sqrtf+3
  5679  003636                     l951:
  5680  003636  0012               	return		;funcret
  5681  003638                     __end_of_sqrtf:
  5682                           	callstack 0
  5683                           
  5684 ;; *************** function _nanf *****************
  5685 ;; Defined at:
  5686 ;;		line 4 in file "D:\MPLABxIDE\pic\sources\c99\common\nanf.c"
  5687 ;; Parameters:    Size  Location     Type
  5688 ;;  s               2    0[COMRAM] PTR const unsigned char 
  5689 ;;		 -> STR_1(1), 
  5690 ;; Auto vars:     Size  Location     Type
  5691 ;;  u               4    4[COMRAM] struct .
  5692 ;; Return value:  Size  Location     Type
  5693 ;;                  4    0[COMRAM] float 
  5694 ;; Registers used:
  5695 ;;		wreg, status,2
  5696 ;; Tracked objects:
  5697 ;;		On entry : 0/0
  5698 ;;		On exit  : 0/0
  5699 ;;		Unchanged: 0/0
  5700 ;; Data sizes:     COMRAM   BANK0   BANK1   BANK2   BANK3   BANK4   BANK5   BANK6   BANK7
  5701 ;;      Params:         4       0       0       0       0       0       0       0       0
  5702 ;;      Locals:         4       0       0       0       0       0       0       0       0
  5703 ;;      Temps:          0       0       0       0       0       0       0       0       0
  5704 ;;      Totals:         8       0       0       0       0       0       0       0       0
  5705 ;;Total ram usage:        8 bytes
  5706 ;; Hardware stack levels used: 1
  5707 ;; This function calls:
  5708 ;;		Nothing
  5709 ;; This function is called by:
  5710 ;;		_sqrtf
  5711 ;; This function uses a non-reentrant model
  5712 ;;
  5713                           
  5714                           	psect	text6
  5715  004D00                     __ptext6:
  5716                           	callstack 0
  5717  004D00                     _nanf:
  5718                           	callstack 27
  5719  004D00  0EFF               	movlw	255
  5720  004D02  6E05               	movwf	nanf@u^0,c
  5721  004D04  0EFF               	movlw	255
  5722  004D06  6E06               	movwf	(nanf@u+1)^0,c
  5723  004D08  0EFF               	movlw	255
  5724  004D0A  6E07               	movwf	(nanf@u+2)^0,c
  5725  004D0C  0E7F               	movlw	127
  5726  004D0E  6E08               	movwf	(nanf@u+3)^0,c
  5727  004D10  C005  F001         	movff	nanf@u,?_nanf
  5728  004D14  C006  F002         	movff	nanf@u+1,?_nanf+1
  5729  004D18  C007  F003         	movff	nanf@u+2,?_nanf+2
  5730  004D1C  C008  F004         	movff	nanf@u+3,?_nanf+3
  5731  004D20  0012               	return		;funcret
  5732  004D22                     __end_of_nanf:
  5733                           	callstack 0
  5734                           
  5735 ;; *************** function ___flge *****************
  5736 ;; Defined at:
  5737 ;;		line 4 in file "D:\MPLABxIDE\pic\sources\c99\common\flge.c"
  5738 ;; Parameters:    Size  Location     Type
  5739 ;;  ff1             4   49[COMRAM] float 
  5740 ;;  ff2             4   53[COMRAM] float 
  5741 ;; Auto vars:     Size  Location     Type
  5742 ;;		None
  5743 ;; Return value:  Size  Location     Type
  5744 ;;		None               void
  5745 ;; Registers used:
  5746 ;;		wreg, status,2, status,0
  5747 ;; Tracked objects:
  5748 ;;		On entry : 0/0
  5749 ;;		On exit  : 0/0
  5750 ;;		Unchanged: 0/0
  5751 ;; Data sizes:     COMRAM   BANK0   BANK1   BANK2   BANK3   BANK4   BANK5   BANK6   BANK7
  5752 ;;      Params:         8       0       0       0       0       0       0       0       0
  5753 ;;      Locals:         0       0       0       0       0       0       0       0       0
  5754 ;;      Temps:          4       0       0       0       0       0       0       0       0
  5755 ;;      Totals:        12       0       0       0       0       0       0       0       0
  5756 ;;Total ram usage:       12 bytes
  5757 ;; Hardware stack levels used: 1
  5758 ;; This function calls:
  5759 ;;		Nothing
  5760 ;; This function is called by:
  5761 ;;		_powf
  5762 ;;		_sqrtf
  5763 ;; This function uses a non-reentrant model
  5764 ;;
  5765                           
  5766                           	psect	text7
  5767  00496E                     __ptext7:
  5768                           	callstack 0
  5769  00496E                     ___flge:
  5770                           	callstack 27
  5771  00496E  0E00               	movlw	0
  5772  004970  1432               	andwf	___flge@ff1^0,w,c
  5773  004972  6E3A               	movwf	??___flge^0,c
  5774  004974  0E00               	movlw	0
  5775  004976  1433               	andwf	(___flge@ff1+1)^0,w,c
  5776  004978  6E3B               	movwf	(??___flge+1)^0,c
  5777  00497A  0E80               	movlw	128
  5778  00497C  1434               	andwf	(___flge@ff1+2)^0,w,c
  5779  00497E  6E3C               	movwf	(??___flge+2)^0,c
  5780  004980  0E7F               	movlw	127
  5781  004982  1435               	andwf	(___flge@ff1+3)^0,w,c
  5782  004984  6E3D               	movwf	(??___flge+3)^0,c
  5783  004986  503A               	movf	??___flge^0,w,c
  5784  004988  103B               	iorwf	(??___flge+1)^0,w,c
  5785  00498A  103C               	iorwf	(??___flge+2)^0,w,c
  5786  00498C  103D               	iorwf	(??___flge+3)^0,w,c
  5787  00498E  A4D8               	btfss	status,2,c
  5788  004990  EFCC  F024         	goto	u2581
  5789  004994  EFCE  F024         	goto	u2580
  5790  004998                     u2581:
  5791  004998  EFD6  F024         	goto	l2606
  5792  00499C                     u2580:
  5793  00499C  0E00               	movlw	0
  5794  00499E  6E32               	movwf	___flge@ff1^0,c
  5795  0049A0  0E00               	movlw	0
  5796  0049A2  6E33               	movwf	(___flge@ff1+1)^0,c
  5797  0049A4  0E00               	movlw	0
  5798  0049A6  6E34               	movwf	(___flge@ff1+2)^0,c
  5799  0049A8  0E00               	movlw	0
  5800  0049AA  6E35               	movwf	(___flge@ff1+3)^0,c
  5801  0049AC                     l2606:
  5802  0049AC  0E00               	movlw	0
  5803  0049AE  1436               	andwf	___flge@ff2^0,w,c
  5804  0049B0  6E3A               	movwf	??___flge^0,c
  5805  0049B2  0E00               	movlw	0
  5806  0049B4  1437               	andwf	(___flge@ff2+1)^0,w,c
  5807  0049B6  6E3B               	movwf	(??___flge+1)^0,c
  5808  0049B8  0E80               	movlw	128
  5809  0049BA  1438               	andwf	(___flge@ff2+2)^0,w,c
  5810  0049BC  6E3C               	movwf	(??___flge+2)^0,c
  5811  0049BE  0E7F               	movlw	127
  5812  0049C0  1439               	andwf	(___flge@ff2+3)^0,w,c
  5813  0049C2  6E3D               	movwf	(??___flge+3)^0,c
  5814  0049C4  503A               	movf	??___flge^0,w,c
  5815  0049C6  103B               	iorwf	(??___flge+1)^0,w,c
  5816  0049C8  103C               	iorwf	(??___flge+2)^0,w,c
  5817  0049CA  103D               	iorwf	(??___flge+3)^0,w,c
  5818  0049CC  A4D8               	btfss	status,2,c
  5819  0049CE  EFEB  F024         	goto	u2591
  5820  0049D2  EFED  F024         	goto	u2590
  5821  0049D6                     u2591:
  5822  0049D6  EFF5  F024         	goto	l2610
  5823  0049DA                     u2590:
  5824  0049DA  0E00               	movlw	0
  5825  0049DC  6E36               	movwf	___flge@ff2^0,c
  5826  0049DE  0E00               	movlw	0
  5827  0049E0  6E37               	movwf	(___flge@ff2+1)^0,c
  5828  0049E2  0E00               	movlw	0
  5829  0049E4  6E38               	movwf	(___flge@ff2+2)^0,c
  5830  0049E6  0E00               	movlw	0
  5831  0049E8  6E39               	movwf	(___flge@ff2+3)^0,c
  5832  0049EA                     l2610:
  5833  0049EA  AE35               	btfss	(___flge@ff1+3)^0,7,c
  5834  0049EC  EFFA  F024         	goto	u2601
  5835  0049F0  EFFC  F024         	goto	u2600
  5836  0049F4                     u2601:
  5837  0049F4  EF05  F025         	goto	l2614
  5838  0049F8                     u2600:
  5839  0049F8  6C32               	negf	___flge@ff1^0,c
  5840  0049FA  1E33               	comf	(___flge@ff1+1)^0,f,c
  5841  0049FC  B0D8               	btfsc	status,0,c
  5842  0049FE  2A33               	incf	(___flge@ff1+1)^0,f,c
  5843  004A00  1E34               	comf	(___flge@ff1+2)^0,f,c
  5844  004A02  B0D8               	btfsc	status,0,c
  5845  004A04  2A34               	incf	(___flge@ff1+2)^0,f,c
  5846  004A06  0E80               	movlw	128
  5847  004A08  5635               	subfwb	(___flge@ff1+3)^0,f,c
  5848  004A0A                     l2614:
  5849  004A0A  AE39               	btfss	(___flge@ff2+3)^0,7,c
  5850  004A0C  EF0A  F025         	goto	u2611
  5851  004A10  EF0C  F025         	goto	u2610
  5852  004A14                     u2611:
  5853  004A14  EF15  F025         	goto	l325
  5854  004A18                     u2610:
  5855  004A18  6C36               	negf	___flge@ff2^0,c
  5856  004A1A  1E37               	comf	(___flge@ff2+1)^0,f,c
  5857  004A1C  B0D8               	btfsc	status,0,c
  5858  004A1E  2A37               	incf	(___flge@ff2+1)^0,f,c
  5859  004A20  1E38               	comf	(___flge@ff2+2)^0,f,c
  5860  004A22  B0D8               	btfsc	status,0,c
  5861  004A24  2A38               	incf	(___flge@ff2+2)^0,f,c
  5862  004A26  0E80               	movlw	128
  5863  004A28  5639               	subfwb	(___flge@ff2+3)^0,f,c
  5864  004A2A                     l325:
  5865  004A2A  0E00               	movlw	0
  5866  004A2C  1A32               	xorwf	___flge@ff1^0,f,c
  5867  004A2E  0E00               	movlw	0
  5868  004A30  1A33               	xorwf	(___flge@ff1+1)^0,f,c
  5869  004A32  0E00               	movlw	0
  5870  004A34  1A34               	xorwf	(___flge@ff1+2)^0,f,c
  5871  004A36  0E80               	movlw	128
  5872  004A38  1A35               	xorwf	(___flge@ff1+3)^0,f,c
  5873  004A3A  0E00               	movlw	0
  5874  004A3C  1A36               	xorwf	___flge@ff2^0,f,c
  5875  004A3E  0E00               	movlw	0
  5876  004A40  1A37               	xorwf	(___flge@ff2+1)^0,f,c
  5877  004A42  0E00               	movlw	0
  5878  004A44  1A38               	xorwf	(___flge@ff2+2)^0,f,c
  5879  004A46  0E80               	movlw	128
  5880  004A48  1A39               	xorwf	(___flge@ff2+3)^0,f,c
  5881  004A4A  5036               	movf	___flge@ff2^0,w,c
  5882  004A4C  5C32               	subwf	___flge@ff1^0,w,c
  5883  004A4E  5037               	movf	(___flge@ff2+1)^0,w,c
  5884  004A50  5833               	subwfb	(___flge@ff1+1)^0,w,c
  5885  004A52  5038               	movf	(___flge@ff2+2)^0,w,c
  5886  004A54  5834               	subwfb	(___flge@ff1+2)^0,w,c
  5887  004A56  5039               	movf	(___flge@ff2+3)^0,w,c
  5888  004A58  5835               	subwfb	(___flge@ff1+3)^0,w,c
  5889  004A5A  B0D8               	btfsc	status,0,c
  5890  004A5C  EF32  F025         	goto	u2621
  5891  004A60  EF34  F025         	goto	u2620
  5892  004A64                     u2621:
  5893  004A64  EF37  F025         	goto	l2620
  5894  004A68                     u2620:
  5895  004A68  90D8               	bcf	status,0,c
  5896  004A6A  EF38  F025         	goto	l330
  5897  004A6E                     l2620:
  5898  004A6E  80D8               	bsf	status,0,c
  5899  004A70                     l330:
  5900  004A70  0012               	return		;funcret
  5901  004A72                     __end_of___flge:
  5902                           	callstack 0
  5903                           
  5904 ;; *************** function _scalbnf *****************
  5905 ;; Defined at:
  5906 ;;		line 4 in file "D:\MPLABxIDE\pic\sources\c99\common\scalbnf.c"
  5907 ;; Parameters:    Size  Location     Type
  5908 ;;  x               4   41[COMRAM] float 
  5909 ;;  n               2   45[COMRAM] int 
  5910 ;; Auto vars:     Size  Location     Type
  5911 ;;  y               4   55[COMRAM] float 
  5912 ;;  u               4   51[COMRAM] struct .
  5913 ;; Return value:  Size  Location     Type
  5914 ;;                  4   41[COMRAM] float 
  5915 ;; Registers used:
  5916 ;;		wreg, status,2, status,0, prodl, prodh, cstack
  5917 ;; Tracked objects:
  5918 ;;		On entry : 0/0
  5919 ;;		On exit  : 0/0
  5920 ;;		Unchanged: 0/0
  5921 ;; Data sizes:     COMRAM   BANK0   BANK1   BANK2   BANK3   BANK4   BANK5   BANK6   BANK7
  5922 ;;      Params:         6       0       0       0       0       0       0       0       0
  5923 ;;      Locals:         8       0       0       0       0       0       0       0       0
  5924 ;;      Temps:          4       0       0       0       0       0       0       0       0
  5925 ;;      Totals:        18       0       0       0       0       0       0       0       0
  5926 ;;Total ram usage:       18 bytes
  5927 ;; Hardware stack levels used: 1
  5928 ;; Hardware stack levels required when called: 1
  5929 ;; This function calls:
  5930 ;;		___flmul
  5931 ;; This function is called by:
  5932 ;;		_powf
  5933 ;; This function uses a non-reentrant model
  5934 ;;
  5935                           
  5936                           	psect	text8
  5937  0042BC                     __ptext8:
  5938                           	callstack 0
  5939  0042BC                     _scalbnf:
  5940                           	callstack 27
  5941  0042BC  C02A  F038         	movff	scalbnf@x,scalbnf@y
  5942  0042C0  C02B  F039         	movff	scalbnf@x+1,scalbnf@y+1
  5943  0042C4  C02C  F03A         	movff	scalbnf@x+2,scalbnf@y+2
  5944  0042C8  C02D  F03B         	movff	scalbnf@x+3,scalbnf@y+3
  5945  0042CC  BE2F               	btfsc	(scalbnf@n+1)^0,7,c
  5946  0042CE  EF72  F021         	goto	u3131
  5947  0042D2  502F               	movf	(scalbnf@n+1)^0,w,c
  5948  0042D4  E109               	bnz	u3130
  5949  0042D6  0E80               	movlw	128
  5950  0042D8  5C2E               	subwf	scalbnf@n^0,w,c
  5951  0042DA  A0D8               	btfss	status,0,c
  5952  0042DC  EF72  F021         	goto	u3131
  5953  0042E0  EF74  F021         	goto	u3130
  5954  0042E4                     u3131:
  5955  0042E4  EFD2  F021         	goto	l2940
  5956  0042E8                     u3130:
  5957  0042E8  C038  F011         	movff	scalbnf@y,___flmul@b
  5958  0042EC  C039  F012         	movff	scalbnf@y+1,___flmul@b+1
  5959  0042F0  C03A  F013         	movff	scalbnf@y+2,___flmul@b+2
  5960  0042F4  C03B  F014         	movff	scalbnf@y+3,___flmul@b+3
  5961  0042F8  0E00               	movlw	0
  5962  0042FA  6E15               	movwf	___flmul@a^0,c
  5963  0042FC  0E00               	movlw	0
  5964  0042FE  6E16               	movwf	(___flmul@a+1)^0,c
  5965  004300  0E00               	movlw	0
  5966  004302  6E17               	movwf	(___flmul@a+2)^0,c
  5967  004304  0E7F               	movlw	127
  5968  004306  6E18               	movwf	(___flmul@a+3)^0,c
  5969  004308  EC7C  F01D         	call	___flmul	;wreg free
  5970  00430C  C011  F038         	movff	?___flmul,scalbnf@y
  5971  004310  C012  F039         	movff	?___flmul+1,scalbnf@y+1
  5972  004314  C013  F03A         	movff	?___flmul+2,scalbnf@y+2
  5973  004318  C014  F03B         	movff	?___flmul+3,scalbnf@y+3
  5974  00431C  0E81               	movlw	129
  5975  00431E  262E               	addwf	scalbnf@n^0,f,c
  5976  004320  0EFF               	movlw	255
  5977  004322  222F               	addwfc	(scalbnf@n+1)^0,f,c
  5978  004324  BE2F               	btfsc	(scalbnf@n+1)^0,7,c
  5979  004326  EF9E  F021         	goto	u3141
  5980  00432A  502F               	movf	(scalbnf@n+1)^0,w,c
  5981  00432C  E109               	bnz	u3140
  5982  00432E  0E80               	movlw	128
  5983  004330  5C2E               	subwf	scalbnf@n^0,w,c
  5984  004332  A0D8               	btfss	status,0,c
  5985  004334  EF9E  F021         	goto	u3141
  5986  004338  EFA0  F021         	goto	u3140
  5987  00433C                     u3141:
  5988  00433C  EF3C  F022         	goto	l2956
  5989  004340                     u3140:
  5990  004340  C038  F011         	movff	scalbnf@y,___flmul@b
  5991  004344  C039  F012         	movff	scalbnf@y+1,___flmul@b+1
  5992  004348  C03A  F013         	movff	scalbnf@y+2,___flmul@b+2
  5993  00434C  C03B  F014         	movff	scalbnf@y+3,___flmul@b+3
  5994  004350  0E00               	movlw	0
  5995  004352  6E15               	movwf	___flmul@a^0,c
  5996  004354  0E00               	movlw	0
  5997  004356  6E16               	movwf	(___flmul@a+1)^0,c
  5998  004358  0E00               	movlw	0
  5999  00435A  6E17               	movwf	(___flmul@a+2)^0,c
  6000  00435C  0E7F               	movlw	127
  6001  00435E  6E18               	movwf	(___flmul@a+3)^0,c
  6002  004360  EC7C  F01D         	call	___flmul	;wreg free
  6003  004364  C011  F038         	movff	?___flmul,scalbnf@y
  6004  004368  C012  F039         	movff	?___flmul+1,scalbnf@y+1
  6005  00436C  C013  F03A         	movff	?___flmul+2,scalbnf@y+2
  6006  004370  C014  F03B         	movff	?___flmul+3,scalbnf@y+3
  6007  004374  0E81               	movlw	129
  6008  004376  262E               	addwf	scalbnf@n^0,f,c
  6009  004378  0EFF               	movlw	255
  6010  00437A  222F               	addwfc	(scalbnf@n+1)^0,f,c
  6011  00437C  BE2F               	btfsc	(scalbnf@n+1)^0,7,c
  6012  00437E  EFCA  F021         	goto	u3151
  6013  004382  502F               	movf	(scalbnf@n+1)^0,w,c
  6014  004384  E109               	bnz	u3150
  6015  004386  0E80               	movlw	128
  6016  004388  5C2E               	subwf	scalbnf@n^0,w,c
  6017  00438A  A0D8               	btfss	status,0,c
  6018  00438C  EFCA  F021         	goto	u3151
  6019  004390  EFCC  F021         	goto	u3150
  6020  004394                     u3151:
  6021  004394  EF3C  F022         	goto	l2956
  6022  004398                     u3150:
  6023  004398  0E00               	movlw	0
  6024  00439A  6E2F               	movwf	(scalbnf@n+1)^0,c
  6025  00439C  0E7F               	movlw	127
  6026  00439E  6E2E               	movwf	scalbnf@n^0,c
  6027  0043A0  EF3C  F022         	goto	l2956
  6028  0043A4                     l2940:
  6029  0043A4  AE2F               	btfss	(scalbnf@n+1)^0,7,c
  6030  0043A6  EFDE  F021         	goto	u3161
  6031  0043AA  0E82               	movlw	130
  6032  0043AC  5C2E               	subwf	scalbnf@n^0,w,c
  6033  0043AE  0EFF               	movlw	255
  6034  0043B0  582F               	subwfb	(scalbnf@n+1)^0,w,c
  6035  0043B2  B0D8               	btfsc	status,0,c
  6036  0043B4  EFDE  F021         	goto	u3161
  6037  0043B8  EFE0  F021         	goto	u3160
  6038  0043BC                     u3161:
  6039  0043BC  EF3C  F022         	goto	l2956
  6040  0043C0                     u3160:
  6041  0043C0  C038  F011         	movff	scalbnf@y,___flmul@b
  6042  0043C4  C039  F012         	movff	scalbnf@y+1,___flmul@b+1
  6043  0043C8  C03A  F013         	movff	scalbnf@y+2,___flmul@b+2
  6044  0043CC  C03B  F014         	movff	scalbnf@y+3,___flmul@b+3
  6045  0043D0  0E00               	movlw	0
  6046  0043D2  6E15               	movwf	___flmul@a^0,c
  6047  0043D4  0E00               	movlw	0
  6048  0043D6  6E16               	movwf	(___flmul@a+1)^0,c
  6049  0043D8  0E80               	movlw	128
  6050  0043DA  6E17               	movwf	(___flmul@a+2)^0,c
  6051  0043DC  0E0C               	movlw	12
  6052  0043DE  6E18               	movwf	(___flmul@a+3)^0,c
  6053  0043E0  EC7C  F01D         	call	___flmul	;wreg free
  6054  0043E4  C011  F038         	movff	?___flmul,scalbnf@y
  6055  0043E8  C012  F039         	movff	?___flmul+1,scalbnf@y+1
  6056  0043EC  C013  F03A         	movff	?___flmul+2,scalbnf@y+2
  6057  0043F0  C014  F03B         	movff	?___flmul+3,scalbnf@y+3
  6058  0043F4  0E66               	movlw	102
  6059  0043F6  262E               	addwf	scalbnf@n^0,f,c
  6060  0043F8  0E00               	movlw	0
  6061  0043FA  222F               	addwfc	(scalbnf@n+1)^0,f,c
  6062  0043FC  AE2F               	btfss	(scalbnf@n+1)^0,7,c
  6063  0043FE  EF0A  F022         	goto	u3171
  6064  004402  0E82               	movlw	130
  6065  004404  5C2E               	subwf	scalbnf@n^0,w,c
  6066  004406  0EFF               	movlw	255
  6067  004408  582F               	subwfb	(scalbnf@n+1)^0,w,c
  6068  00440A  B0D8               	btfsc	status,0,c
  6069  00440C  EF0A  F022         	goto	u3171
  6070  004410  EF0C  F022         	goto	u3170
  6071  004414                     u3171:
  6072  004414  EF3C  F022         	goto	l2956
  6073  004418                     u3170:
  6074  004418  C038  F011         	movff	scalbnf@y,___flmul@b
  6075  00441C  C039  F012         	movff	scalbnf@y+1,___flmul@b+1
  6076  004420  C03A  F013         	movff	scalbnf@y+2,___flmul@b+2
  6077  004424  C03B  F014         	movff	scalbnf@y+3,___flmul@b+3
  6078  004428  0E00               	movlw	0
  6079  00442A  6E15               	movwf	___flmul@a^0,c
  6080  00442C  0E00               	movlw	0
  6081  00442E  6E16               	movwf	(___flmul@a+1)^0,c
  6082  004430  0E80               	movlw	128
  6083  004432  6E17               	movwf	(___flmul@a+2)^0,c
  6084  004434  0E0C               	movlw	12
  6085  004436  6E18               	movwf	(___flmul@a+3)^0,c
  6086  004438  EC7C  F01D         	call	___flmul	;wreg free
  6087  00443C  C011  F038         	movff	?___flmul,scalbnf@y
  6088  004440  C012  F039         	movff	?___flmul+1,scalbnf@y+1
  6089  004444  C013  F03A         	movff	?___flmul+2,scalbnf@y+2
  6090  004448  C014  F03B         	movff	?___flmul+3,scalbnf@y+3
  6091  00444C  0E66               	movlw	102
  6092  00444E  262E               	addwf	scalbnf@n^0,f,c
  6093  004450  0E00               	movlw	0
  6094  004452  222F               	addwfc	(scalbnf@n+1)^0,f,c
  6095  004454  AE2F               	btfss	(scalbnf@n+1)^0,7,c
  6096  004456  EF36  F022         	goto	u3181
  6097  00445A  0E82               	movlw	130
  6098  00445C  5C2E               	subwf	scalbnf@n^0,w,c
  6099  00445E  0EFF               	movlw	255
  6100  004460  582F               	subwfb	(scalbnf@n+1)^0,w,c
  6101  004462  B0D8               	btfsc	status,0,c
  6102  004464  EF36  F022         	goto	u3181
  6103  004468  EF38  F022         	goto	u3180
  6104  00446C                     u3181:
  6105  00446C  EF3C  F022         	goto	l2956
  6106  004470                     u3180:
  6107  004470  0EFF               	movlw	255
  6108  004472  6E2F               	movwf	(scalbnf@n+1)^0,c
  6109  004474  0E82               	movlw	130
  6110  004476  6E2E               	movwf	scalbnf@n^0,c
  6111  004478                     l2956:
  6112  004478  0E7F               	movlw	127
  6113  00447A  242E               	addwf	scalbnf@n^0,w,c
  6114  00447C  6E30               	movwf	??_scalbnf^0,c
  6115  00447E  0E00               	movlw	0
  6116  004480  202F               	addwfc	(scalbnf@n+1)^0,w,c
  6117  004482  6E31               	movwf	(??_scalbnf+1)^0,c
  6118  004484  6A32               	clrf	(??_scalbnf+2)^0,c
  6119  004486  6A33               	clrf	(??_scalbnf+3)^0,c
  6120  004488  0E17               	movlw	23
  6121  00448A                     u3195:
  6122  00448A  90D8               	bcf	status,0,c
  6123  00448C  3630               	rlcf	??_scalbnf^0,f,c
  6124  00448E  3631               	rlcf	(??_scalbnf+1)^0,f,c
  6125  004490  3632               	rlcf	(??_scalbnf+2)^0,f,c
  6126  004492  3633               	rlcf	(??_scalbnf+3)^0,f,c
  6127  004494  2EE8               	decfsz	wreg,f,c
  6128  004496  EF45  F022         	goto	u3195
  6129  00449A  C030  F034         	movff	??_scalbnf,scalbnf@u
  6130  00449E  C031  F035         	movff	??_scalbnf+1,scalbnf@u+1
  6131  0044A2  C032  F036         	movff	??_scalbnf+2,scalbnf@u+2
  6132  0044A6  C033  F037         	movff	??_scalbnf+3,scalbnf@u+3
  6133  0044AA  C034  F011         	movff	scalbnf@u,___flmul@b
  6134  0044AE  C035  F012         	movff	scalbnf@u+1,___flmul@b+1
  6135  0044B2  C036  F013         	movff	scalbnf@u+2,___flmul@b+2
  6136  0044B6  C037  F014         	movff	scalbnf@u+3,___flmul@b+3
  6137  0044BA  C038  F015         	movff	scalbnf@y,___flmul@a
  6138  0044BE  C039  F016         	movff	scalbnf@y+1,___flmul@a+1
  6139  0044C2  C03A  F017         	movff	scalbnf@y+2,___flmul@a+2
  6140  0044C6  C03B  F018         	movff	scalbnf@y+3,___flmul@a+3
  6141  0044CA  EC7C  F01D         	call	___flmul	;wreg free
  6142  0044CE  C011  F02A         	movff	?___flmul,scalbnf@x
  6143  0044D2  C012  F02B         	movff	?___flmul+1,scalbnf@x+1
  6144  0044D6  C013  F02C         	movff	?___flmul+2,scalbnf@x+2
  6145  0044DA  C014  F02D         	movff	?___flmul+3,scalbnf@x+3
  6146  0044DE  C02A  F02A         	movff	scalbnf@x,?_scalbnf
  6147  0044E2  C02B  F02B         	movff	scalbnf@x+1,?_scalbnf+1
  6148  0044E6  C02C  F02C         	movff	scalbnf@x+2,?_scalbnf+2
  6149  0044EA  C02D  F02D         	movff	scalbnf@x+3,?_scalbnf+3
  6150  0044EE  0012               	return		;funcret
  6151  0044F0                     __end_of_scalbnf:
  6152                           	callstack 0
  6153                           
  6154 ;; *************** function ___flmul *****************
  6155 ;; Defined at:
  6156 ;;		line 8 in file "D:\MPLABxIDE\pic\sources\c99\common\sprcmul.c"
  6157 ;; Parameters:    Size  Location     Type
  6158 ;;  b               4   16[COMRAM] float 
  6159 ;;  a               4   20[COMRAM] float 
  6160 ;; Auto vars:     Size  Location     Type
  6161 ;;  prod            4   35[COMRAM] struct .
  6162 ;;  grs             4   29[COMRAM] unsigned long 
  6163 ;;  temp            2   39[COMRAM] struct .
  6164 ;;  bexp            1   34[COMRAM] unsigned char 
  6165 ;;  aexp            1   33[COMRAM] unsigned char 
  6166 ;;  sign            1   28[COMRAM] unsigned char 
  6167 ;; Return value:  Size  Location     Type
  6168 ;;                  4   16[COMRAM] unsigned char 
  6169 ;; Registers used:
  6170 ;;		wreg, status,2, status,0, prodl, prodh
  6171 ;; Tracked objects:
  6172 ;;		On entry : 0/0
  6173 ;;		On exit  : 0/0
  6174 ;;		Unchanged: 0/0
  6175 ;; Data sizes:     COMRAM   BANK0   BANK1   BANK2   BANK3   BANK4   BANK5   BANK6   BANK7
  6176 ;;      Params:         8       0       0       0       0       0       0       0       0
  6177 ;;      Locals:        13       0       0       0       0       0       0       0       0
  6178 ;;      Temps:          4       0       0       0       0       0       0       0       0
  6179 ;;      Totals:        25       0       0       0       0       0       0       0       0
  6180 ;;Total ram usage:       25 bytes
  6181 ;; Hardware stack levels used: 1
  6182 ;; This function calls:
  6183 ;;		Nothing
  6184 ;; This function is called by:
  6185 ;;		_powf
  6186 ;;		_scalbnf
  6187 ;;		_sqrtf
  6188 ;; This function uses a non-reentrant model
  6189 ;;
  6190                           
  6191                           	psect	text9
  6192  003AF8                     __ptext9:
  6193                           	callstack 0
  6194  003AF8                     ___flmul:
  6195                           	callstack 27
  6196  003AF8  5014               	movf	(___flmul@b+3)^0,w,c
  6197  003AFA  0B80               	andlw	128
  6198  003AFC  6E1D               	movwf	___flmul@sign^0,c
  6199  003AFE  5014               	movf	(___flmul@b+3)^0,w,c
  6200  003B00  2414               	addwf	(___flmul@b+3)^0,w,c
  6201  003B02  6E23               	movwf	___flmul@bexp^0,c
  6202  003B04  AE13               	btfss	(___flmul@b+2)^0,7,c
  6203  003B06  EF87  F01D         	goto	u2391
  6204  003B0A  EF89  F01D         	goto	u2390
  6205  003B0E                     u2391:
  6206  003B0E  EF8A  F01D         	goto	l2478
  6207  003B12                     u2390:
  6208  003B12  8023               	bsf	___flmul@bexp^0,0,c
  6209  003B14                     l2478:
  6210  003B14  5023               	movf	___flmul@bexp^0,w,c
  6211  003B16  B4D8               	btfsc	status,2,c
  6212  003B18  EF90  F01D         	goto	u2401
  6213  003B1C  EF92  F01D         	goto	u2400
  6214  003B20                     u2401:
  6215  003B20  EFA5  F01D         	goto	l2486
  6216  003B24                     u2400:
  6217  003B24  2823               	incf	___flmul@bexp^0,w,c
  6218  003B26  A4D8               	btfss	status,2,c
  6219  003B28  EF98  F01D         	goto	u2411
  6220  003B2C  EF9A  F01D         	goto	u2410
  6221  003B30                     u2411:
  6222  003B30  EFA2  F01D         	goto	l2484
  6223  003B34                     u2410:
  6224  003B34  0E00               	movlw	0
  6225  003B36  6E11               	movwf	___flmul@b^0,c
  6226  003B38  0E00               	movlw	0
  6227  003B3A  6E12               	movwf	(___flmul@b+1)^0,c
  6228  003B3C  0E00               	movlw	0
  6229  003B3E  6E13               	movwf	(___flmul@b+2)^0,c
  6230  003B40  0E00               	movlw	0
  6231  003B42  6E14               	movwf	(___flmul@b+3)^0,c
  6232  003B44                     l2484:
  6233  003B44  8E13               	bsf	(___flmul@b+2)^0,7,c
  6234  003B46  EFAD  F01D         	goto	l2488
  6235  003B4A                     l2486:
  6236  003B4A  0E00               	movlw	0
  6237  003B4C  6E11               	movwf	___flmul@b^0,c
  6238  003B4E  0E00               	movlw	0
  6239  003B50  6E12               	movwf	(___flmul@b+1)^0,c
  6240  003B52  0E00               	movlw	0
  6241  003B54  6E13               	movwf	(___flmul@b+2)^0,c
  6242  003B56  0E00               	movlw	0
  6243  003B58  6E14               	movwf	(___flmul@b+3)^0,c
  6244  003B5A                     l2488:
  6245  003B5A  5018               	movf	(___flmul@a+3)^0,w,c
  6246  003B5C  0B80               	andlw	128
  6247  003B5E  1A1D               	xorwf	___flmul@sign^0,f,c
  6248  003B60  5018               	movf	(___flmul@a+3)^0,w,c
  6249  003B62  2418               	addwf	(___flmul@a+3)^0,w,c
  6250  003B64  6E22               	movwf	___flmul@aexp^0,c
  6251  003B66  AE17               	btfss	(___flmul@a+2)^0,7,c
  6252  003B68  EFB8  F01D         	goto	u2421
  6253  003B6C  EFBA  F01D         	goto	u2420
  6254  003B70                     u2421:
  6255  003B70  EFBB  F01D         	goto	l2496
  6256  003B74                     u2420:
  6257  003B74  8022               	bsf	___flmul@aexp^0,0,c
  6258  003B76                     l2496:
  6259  003B76  5022               	movf	___flmul@aexp^0,w,c
  6260  003B78  B4D8               	btfsc	status,2,c
  6261  003B7A  EFC1  F01D         	goto	u2431
  6262  003B7E  EFC3  F01D         	goto	u2430
  6263  003B82                     u2431:
  6264  003B82  EFD6  F01D         	goto	l2504
  6265  003B86                     u2430:
  6266  003B86  2822               	incf	___flmul@aexp^0,w,c
  6267  003B88  A4D8               	btfss	status,2,c
  6268  003B8A  EFC9  F01D         	goto	u2441
  6269  003B8E  EFCB  F01D         	goto	u2440
  6270  003B92                     u2441:
  6271  003B92  EFD3  F01D         	goto	l2502
  6272  003B96                     u2440:
  6273  003B96  0E00               	movlw	0
  6274  003B98  6E15               	movwf	___flmul@a^0,c
  6275  003B9A  0E00               	movlw	0
  6276  003B9C  6E16               	movwf	(___flmul@a+1)^0,c
  6277  003B9E  0E00               	movlw	0
  6278  003BA0  6E17               	movwf	(___flmul@a+2)^0,c
  6279  003BA2  0E00               	movlw	0
  6280  003BA4  6E18               	movwf	(___flmul@a+3)^0,c
  6281  003BA6                     l2502:
  6282  003BA6  8E17               	bsf	(___flmul@a+2)^0,7,c
  6283  003BA8  EFDE  F01D         	goto	l674
  6284  003BAC                     l2504:
  6285  003BAC  0E00               	movlw	0
  6286  003BAE  6E15               	movwf	___flmul@a^0,c
  6287  003BB0  0E00               	movlw	0
  6288  003BB2  6E16               	movwf	(___flmul@a+1)^0,c
  6289  003BB4  0E00               	movlw	0
  6290  003BB6  6E17               	movwf	(___flmul@a+2)^0,c
  6291  003BB8  0E00               	movlw	0
  6292  003BBA  6E18               	movwf	(___flmul@a+3)^0,c
  6293  003BBC                     l674:
  6294  003BBC  5022               	movf	___flmul@aexp^0,w,c
  6295  003BBE  B4D8               	btfsc	status,2,c
  6296  003BC0  EFE4  F01D         	goto	u2451
  6297  003BC4  EFE6  F01D         	goto	u2450
  6298  003BC8                     u2451:
  6299  003BC8  EFEE  F01D         	goto	l2508
  6300  003BCC                     u2450:
  6301  003BCC  5023               	movf	___flmul@bexp^0,w,c
  6302  003BCE  A4D8               	btfss	status,2,c
  6303  003BD0  EFEC  F01D         	goto	u2461
  6304  003BD4  EFEE  F01D         	goto	u2460
  6305  003BD8                     u2461:
  6306  003BD8  EFF8  F01D         	goto	l2512
  6307  003BDC                     u2460:
  6308  003BDC                     l2508:
  6309  003BDC  0E00               	movlw	0
  6310  003BDE  6E11               	movwf	?___flmul^0,c
  6311  003BE0  0E00               	movlw	0
  6312  003BE2  6E12               	movwf	(?___flmul+1)^0,c
  6313  003BE4  0E00               	movlw	0
  6314  003BE6  6E13               	movwf	(?___flmul+2)^0,c
  6315  003BE8  0E00               	movlw	0
  6316  003BEA  6E14               	movwf	(?___flmul+3)^0,c
  6317  003BEC  EF90  F01F         	goto	l678
  6318  003BF0                     l2512:
  6319  003BF0  5017               	movf	(___flmul@a+2)^0,w,c
  6320  003BF2  0211               	mulwf	___flmul@b^0,c
  6321  003BF4  CFF3 F028          	movff	prodl,___flmul@temp
  6322  003BF8  CFF4 F029          	movff	prodh,___flmul@temp+1
  6323  003BFC  5028               	movf	___flmul@temp^0,w,c
  6324  003BFE  6E1E               	movwf	___flmul@grs^0,c
  6325  003C00  6A1F               	clrf	(___flmul@grs+1)^0,c
  6326  003C02  6A20               	clrf	(___flmul@grs+2)^0,c
  6327  003C04  6A21               	clrf	(___flmul@grs+3)^0,c
  6328  003C06  5029               	movf	(___flmul@temp+1)^0,w,c
  6329  003C08  6E24               	movwf	___flmul@prod^0,c
  6330  003C0A  6A25               	clrf	(___flmul@prod+1)^0,c
  6331  003C0C  6A26               	clrf	(___flmul@prod+2)^0,c
  6332  003C0E  6A27               	clrf	(___flmul@prod+3)^0,c
  6333  003C10  5016               	movf	(___flmul@a+1)^0,w,c
  6334  003C12  0212               	mulwf	(___flmul@b+1)^0,c
  6335  003C14  CFF3 F028          	movff	prodl,___flmul@temp
  6336  003C18  CFF4 F029          	movff	prodh,___flmul@temp+1
  6337  003C1C  5028               	movf	___flmul@temp^0,w,c
  6338  003C1E  261E               	addwf	___flmul@grs^0,f,c
  6339  003C20  0E00               	movlw	0
  6340  003C22  221F               	addwfc	(___flmul@grs+1)^0,f,c
  6341  003C24  2220               	addwfc	(___flmul@grs+2)^0,f,c
  6342  003C26  2221               	addwfc	(___flmul@grs+3)^0,f,c
  6343  003C28  5029               	movf	(___flmul@temp+1)^0,w,c
  6344  003C2A  2624               	addwf	___flmul@prod^0,f,c
  6345  003C2C  0E00               	movlw	0
  6346  003C2E  2225               	addwfc	(___flmul@prod+1)^0,f,c
  6347  003C30  2226               	addwfc	(___flmul@prod+2)^0,f,c
  6348  003C32  2227               	addwfc	(___flmul@prod+3)^0,f,c
  6349  003C34  5015               	movf	___flmul@a^0,w,c
  6350  003C36  0213               	mulwf	(___flmul@b+2)^0,c
  6351  003C38  CFF3 F028          	movff	prodl,___flmul@temp
  6352  003C3C  CFF4 F029          	movff	prodh,___flmul@temp+1
  6353  003C40  5028               	movf	___flmul@temp^0,w,c
  6354  003C42  261E               	addwf	___flmul@grs^0,f,c
  6355  003C44  0E00               	movlw	0
  6356  003C46  221F               	addwfc	(___flmul@grs+1)^0,f,c
  6357  003C48  2220               	addwfc	(___flmul@grs+2)^0,f,c
  6358  003C4A  2221               	addwfc	(___flmul@grs+3)^0,f,c
  6359  003C4C  5029               	movf	(___flmul@temp+1)^0,w,c
  6360  003C4E  2624               	addwf	___flmul@prod^0,f,c
  6361  003C50  0E00               	movlw	0
  6362  003C52  2225               	addwfc	(___flmul@prod+1)^0,f,c
  6363  003C54  2226               	addwfc	(___flmul@prod+2)^0,f,c
  6364  003C56  2227               	addwfc	(___flmul@prod+3)^0,f,c
  6365  003C58  C020  F021         	movff	___flmul@grs+2,___flmul@grs+3
  6366  003C5C  C01F  F020         	movff	___flmul@grs+1,___flmul@grs+2
  6367  003C60  C01E  F01F         	movff	___flmul@grs,___flmul@grs+1
  6368  003C64  6A1E               	clrf	___flmul@grs^0,c
  6369  003C66  5015               	movf	___flmul@a^0,w,c
  6370  003C68  0212               	mulwf	(___flmul@b+1)^0,c
  6371  003C6A  CFF3 F028          	movff	prodl,___flmul@temp
  6372  003C6E  CFF4 F029          	movff	prodh,___flmul@temp+1
  6373  003C72  5028               	movf	___flmul@temp^0,w,c
  6374  003C74  261E               	addwf	___flmul@grs^0,f,c
  6375  003C76  5029               	movf	(___flmul@temp+1)^0,w,c
  6376  003C78  221F               	addwfc	(___flmul@grs+1)^0,f,c
  6377  003C7A  0E00               	movlw	0
  6378  003C7C  2220               	addwfc	(___flmul@grs+2)^0,f,c
  6379  003C7E  0E00               	movlw	0
  6380  003C80  2221               	addwfc	(___flmul@grs+3)^0,f,c
  6381  003C82  5016               	movf	(___flmul@a+1)^0,w,c
  6382  003C84  0211               	mulwf	___flmul@b^0,c
  6383  003C86  CFF3 F028          	movff	prodl,___flmul@temp
  6384  003C8A  CFF4 F029          	movff	prodh,___flmul@temp+1
  6385  003C8E  5028               	movf	___flmul@temp^0,w,c
  6386  003C90  261E               	addwf	___flmul@grs^0,f,c
  6387  003C92  5029               	movf	(___flmul@temp+1)^0,w,c
  6388  003C94  221F               	addwfc	(___flmul@grs+1)^0,f,c
  6389  003C96  0E00               	movlw	0
  6390  003C98  2220               	addwfc	(___flmul@grs+2)^0,f,c
  6391  003C9A  0E00               	movlw	0
  6392  003C9C  2221               	addwfc	(___flmul@grs+3)^0,f,c
  6393  003C9E  C020  F021         	movff	___flmul@grs+2,___flmul@grs+3
  6394  003CA2  C01F  F020         	movff	___flmul@grs+1,___flmul@grs+2
  6395  003CA6  C01E  F01F         	movff	___flmul@grs,___flmul@grs+1
  6396  003CAA  6A1E               	clrf	___flmul@grs^0,c
  6397  003CAC  5015               	movf	___flmul@a^0,w,c
  6398  003CAE  0211               	mulwf	___flmul@b^0,c
  6399  003CB0  CFF3 F028          	movff	prodl,___flmul@temp
  6400  003CB4  CFF4 F029          	movff	prodh,___flmul@temp+1
  6401  003CB8  5028               	movf	___flmul@temp^0,w,c
  6402  003CBA  261E               	addwf	___flmul@grs^0,f,c
  6403  003CBC  5029               	movf	(___flmul@temp+1)^0,w,c
  6404  003CBE  221F               	addwfc	(___flmul@grs+1)^0,f,c
  6405  003CC0  0E00               	movlw	0
  6406  003CC2  2220               	addwfc	(___flmul@grs+2)^0,f,c
  6407  003CC4  0E00               	movlw	0
  6408  003CC6  2221               	addwfc	(___flmul@grs+3)^0,f,c
  6409  003CC8  5017               	movf	(___flmul@a+2)^0,w,c
  6410  003CCA  0212               	mulwf	(___flmul@b+1)^0,c
  6411  003CCC  CFF3 F028          	movff	prodl,___flmul@temp
  6412  003CD0  CFF4 F029          	movff	prodh,___flmul@temp+1
  6413  003CD4  5028               	movf	___flmul@temp^0,w,c
  6414  003CD6  2624               	addwf	___flmul@prod^0,f,c
  6415  003CD8  5029               	movf	(___flmul@temp+1)^0,w,c
  6416  003CDA  2225               	addwfc	(___flmul@prod+1)^0,f,c
  6417  003CDC  0E00               	movlw	0
  6418  003CDE  2226               	addwfc	(___flmul@prod+2)^0,f,c
  6419  003CE0  0E00               	movlw	0
  6420  003CE2  2227               	addwfc	(___flmul@prod+3)^0,f,c
  6421  003CE4  5016               	movf	(___flmul@a+1)^0,w,c
  6422  003CE6  0213               	mulwf	(___flmul@b+2)^0,c
  6423  003CE8  CFF3 F028          	movff	prodl,___flmul@temp
  6424  003CEC  CFF4 F029          	movff	prodh,___flmul@temp+1
  6425  003CF0  5028               	movf	___flmul@temp^0,w,c
  6426  003CF2  2624               	addwf	___flmul@prod^0,f,c
  6427  003CF4  5029               	movf	(___flmul@temp+1)^0,w,c
  6428  003CF6  2225               	addwfc	(___flmul@prod+1)^0,f,c
  6429  003CF8  0E00               	movlw	0
  6430  003CFA  2226               	addwfc	(___flmul@prod+2)^0,f,c
  6431  003CFC  0E00               	movlw	0
  6432  003CFE  2227               	addwfc	(___flmul@prod+3)^0,f,c
  6433  003D00  5017               	movf	(___flmul@a+2)^0,w,c
  6434  003D02  0213               	mulwf	(___flmul@b+2)^0,c
  6435  003D04  CFF3 F028          	movff	prodl,___flmul@temp
  6436  003D08  CFF4 F029          	movff	prodh,___flmul@temp+1
  6437  003D0C  5028               	movf	___flmul@temp^0,w,c
  6438  003D0E  6E19               	movwf	??___flmul^0,c
  6439  003D10  5029               	movf	(___flmul@temp+1)^0,w,c
  6440  003D12  6E1A               	movwf	(??___flmul+1)^0,c
  6441  003D14  6A1B               	clrf	(??___flmul+2)^0,c
  6442  003D16  6A1C               	clrf	(??___flmul+3)^0,c
  6443  003D18  C01B  F01C         	movff	??___flmul+2,??___flmul+3
  6444  003D1C  C01A  F01B         	movff	??___flmul+1,??___flmul+2
  6445  003D20  C019  F01A         	movff	??___flmul,??___flmul+1
  6446  003D24  6A19               	clrf	??___flmul^0,c
  6447  003D26  5019               	movf	??___flmul^0,w,c
  6448  003D28  2624               	addwf	___flmul@prod^0,f,c
  6449  003D2A  501A               	movf	(??___flmul+1)^0,w,c
  6450  003D2C  2225               	addwfc	(___flmul@prod+1)^0,f,c
  6451  003D2E  501B               	movf	(??___flmul+2)^0,w,c
  6452  003D30  2226               	addwfc	(___flmul@prod+2)^0,f,c
  6453  003D32  501C               	movf	(??___flmul+3)^0,w,c
  6454  003D34  2227               	addwfc	(___flmul@prod+3)^0,f,c
  6455  003D36  C01E  F019         	movff	___flmul@grs,??___flmul
  6456  003D3A  C01F  F01A         	movff	___flmul@grs+1,??___flmul+1
  6457  003D3E  C020  F01B         	movff	___flmul@grs+2,??___flmul+2
  6458  003D42  C021  F01C         	movff	___flmul@grs+3,??___flmul+3
  6459  003D46  0E19               	movlw	25
  6460  003D48  EFAB  F01E         	goto	u2470
  6461  003D4C                     u2475:
  6462  003D4C  90D8               	bcf	status,0,c
  6463  003D4E  321C               	rrcf	(??___flmul+3)^0,f,c
  6464  003D50  321B               	rrcf	(??___flmul+2)^0,f,c
  6465  003D52  321A               	rrcf	(??___flmul+1)^0,f,c
  6466  003D54  3219               	rrcf	??___flmul^0,f,c
  6467  003D56                     u2470:
  6468  003D56  2EE8               	decfsz	wreg,f,c
  6469  003D58  EFA6  F01E         	goto	u2475
  6470  003D5C  5019               	movf	??___flmul^0,w,c
  6471  003D5E  2624               	addwf	___flmul@prod^0,f,c
  6472  003D60  501A               	movf	(??___flmul+1)^0,w,c
  6473  003D62  2225               	addwfc	(___flmul@prod+1)^0,f,c
  6474  003D64  501B               	movf	(??___flmul+2)^0,w,c
  6475  003D66  2226               	addwfc	(___flmul@prod+2)^0,f,c
  6476  003D68  501C               	movf	(??___flmul+3)^0,w,c
  6477  003D6A  2227               	addwfc	(___flmul@prod+3)^0,f,c
  6478  003D6C  C020  F021         	movff	___flmul@grs+2,___flmul@grs+3
  6479  003D70  C01F  F020         	movff	___flmul@grs+1,___flmul@grs+2
  6480  003D74  C01E  F01F         	movff	___flmul@grs,___flmul@grs+1
  6481  003D78  6A1E               	clrf	___flmul@grs^0,c
  6482  003D7A  5022               	movf	___flmul@aexp^0,w,c
  6483  003D7C  C023  F019         	movff	___flmul@bexp,??___flmul
  6484  003D80  6A1A               	clrf	(??___flmul+1)^0,c
  6485  003D82  2619               	addwf	??___flmul^0,f,c
  6486  003D84  0E00               	movlw	0
  6487  003D86  221A               	addwfc	(??___flmul+1)^0,f,c
  6488  003D88  0E82               	movlw	130
  6489  003D8A  2419               	addwf	??___flmul^0,w,c
  6490  003D8C  6E28               	movwf	___flmul@temp^0,c
  6491  003D8E  0EFF               	movlw	255
  6492  003D90  201A               	addwfc	(??___flmul+1)^0,w,c
  6493  003D92  6E29               	movwf	(___flmul@temp+1)^0,c
  6494  003D94  EFE1  F01E         	goto	l2560
  6495  003D98                     l2554:
  6496  003D98  90D8               	bcf	status,0,c
  6497  003D9A  3624               	rlcf	___flmul@prod^0,f,c
  6498  003D9C  3625               	rlcf	(___flmul@prod+1)^0,f,c
  6499  003D9E  3626               	rlcf	(___flmul@prod+2)^0,f,c
  6500  003DA0  3627               	rlcf	(___flmul@prod+3)^0,f,c
  6501  003DA2  AE21               	btfss	(___flmul@grs+3)^0,7,c
  6502  003DA4  EFD6  F01E         	goto	u2481
  6503  003DA8  EFD8  F01E         	goto	u2480
  6504  003DAC                     u2481:
  6505  003DAC  EFD9  F01E         	goto	l681
  6506  003DB0                     u2480:
  6507  003DB0  8024               	bsf	___flmul@prod^0,0,c
  6508  003DB2                     l681:
  6509  003DB2  90D8               	bcf	status,0,c
  6510  003DB4  361E               	rlcf	___flmul@grs^0,f,c
  6511  003DB6  361F               	rlcf	(___flmul@grs+1)^0,f,c
  6512  003DB8  3620               	rlcf	(___flmul@grs+2)^0,f,c
  6513  003DBA  3621               	rlcf	(___flmul@grs+3)^0,f,c
  6514  003DBC  0628               	decf	___flmul@temp^0,f,c
  6515  003DBE  A0D8               	btfss	status,0,c
  6516  003DC0  0629               	decf	(___flmul@temp+1)^0,f,c
  6517  003DC2                     l2560:
  6518  003DC2  AE26               	btfss	(___flmul@prod+2)^0,7,c
  6519  003DC4  EFE6  F01E         	goto	u2491
  6520  003DC8  EFE8  F01E         	goto	u2490
  6521  003DCC                     u2491:
  6522  003DCC  EFCC  F01E         	goto	l2554
  6523  003DD0                     u2490:
  6524  003DD0  0E00               	movlw	0
  6525  003DD2  6E22               	movwf	___flmul@aexp^0,c
  6526  003DD4  AE21               	btfss	(___flmul@grs+3)^0,7,c
  6527  003DD6  EFEF  F01E         	goto	u2501
  6528  003DDA  EFF1  F01E         	goto	u2500
  6529  003DDE                     u2501:
  6530  003DDE  EF15  F01F         	goto	l683
  6531  003DE2                     u2500:
  6532  003DE2  0EFF               	movlw	255
  6533  003DE4  141E               	andwf	___flmul@grs^0,w,c
  6534  003DE6  6E19               	movwf	??___flmul^0,c
  6535  003DE8  0EFF               	movlw	255
  6536  003DEA  141F               	andwf	(___flmul@grs+1)^0,w,c
  6537  003DEC  6E1A               	movwf	(??___flmul+1)^0,c
  6538  003DEE  0EFF               	movlw	255
  6539  003DF0  1420               	andwf	(___flmul@grs+2)^0,w,c
  6540  003DF2  6E1B               	movwf	(??___flmul+2)^0,c
  6541  003DF4  0E7F               	movlw	127
  6542  003DF6  1421               	andwf	(___flmul@grs+3)^0,w,c
  6543  003DF8  6E1C               	movwf	(??___flmul+3)^0,c
  6544  003DFA  5019               	movf	??___flmul^0,w,c
  6545  003DFC  101A               	iorwf	(??___flmul+1)^0,w,c
  6546  003DFE  101B               	iorwf	(??___flmul+2)^0,w,c
  6547  003E00  101C               	iorwf	(??___flmul+3)^0,w,c
  6548  003E02  B4D8               	btfsc	status,2,c
  6549  003E04  EF06  F01F         	goto	u2511
  6550  003E08  EF08  F01F         	goto	u2510
  6551  003E0C                     u2511:
  6552  003E0C  EF0C  F01F         	goto	l684
  6553  003E10                     u2510:
  6554  003E10                     l2568:
  6555  003E10  0E01               	movlw	1
  6556  003E12  6E22               	movwf	___flmul@aexp^0,c
  6557  003E14  EF15  F01F         	goto	l683
  6558  003E18                     l684:
  6559  003E18  A024               	btfss	___flmul@prod^0,0,c
  6560  003E1A  EF11  F01F         	goto	u2521
  6561  003E1E  EF13  F01F         	goto	u2520
  6562  003E22                     u2521:
  6563  003E22  EF15  F01F         	goto	l683
  6564  003E26                     u2520:
  6565  003E26  EF08  F01F         	goto	l2568
  6566  003E2A                     l683:
  6567  003E2A  5022               	movf	___flmul@aexp^0,w,c
  6568  003E2C  B4D8               	btfsc	status,2,c
  6569  003E2E  EF1B  F01F         	goto	u2531
  6570  003E32  EF1D  F01F         	goto	u2530
  6571  003E36                     u2531:
  6572  003E36  EF41  F01F         	goto	l2580
  6573  003E3A                     u2530:
  6574  003E3A  0E01               	movlw	1
  6575  003E3C  2624               	addwf	___flmul@prod^0,f,c
  6576  003E3E  0E00               	movlw	0
  6577  003E40  2225               	addwfc	(___flmul@prod+1)^0,f,c
  6578  003E42  2226               	addwfc	(___flmul@prod+2)^0,f,c
  6579  003E44  2227               	addwfc	(___flmul@prod+3)^0,f,c
  6580  003E46  A027               	btfss	(___flmul@prod+3)^0,0,c
  6581  003E48  EF28  F01F         	goto	u2541
  6582  003E4C  EF2A  F01F         	goto	u2540
  6583  003E50                     u2541:
  6584  003E50  EF41  F01F         	goto	l2580
  6585  003E54                     u2540:
  6586  003E54  C024  F019         	movff	___flmul@prod,??___flmul
  6587  003E58  C025  F01A         	movff	___flmul@prod+1,??___flmul+1
  6588  003E5C  C026  F01B         	movff	___flmul@prod+2,??___flmul+2
  6589  003E60  C027  F01C         	movff	___flmul@prod+3,??___flmul+3
  6590  003E64  341C               	rlcf	(??___flmul+3)^0,w,c
  6591  003E66  321C               	rrcf	(??___flmul+3)^0,f,c
  6592  003E68  321B               	rrcf	(??___flmul+2)^0,f,c
  6593  003E6A  321A               	rrcf	(??___flmul+1)^0,f,c
  6594  003E6C  3219               	rrcf	??___flmul^0,f,c
  6595  003E6E  C019  F024         	movff	??___flmul,___flmul@prod
  6596  003E72  C01A  F025         	movff	??___flmul+1,___flmul@prod+1
  6597  003E76  C01B  F026         	movff	??___flmul+2,___flmul@prod+2
  6598  003E7A  C01C  F027         	movff	??___flmul+3,___flmul@prod+3
  6599  003E7E  4A28               	infsnz	___flmul@temp^0,f,c
  6600  003E80  2A29               	incf	(___flmul@temp+1)^0,f,c
  6601  003E82                     l2580:
  6602  003E82  BE29               	btfsc	(___flmul@temp+1)^0,7,c
  6603  003E84  EF4C  F01F         	goto	u2551
  6604  003E88  5029               	movf	(___flmul@temp+1)^0,w,c
  6605  003E8A  E108               	bnz	u2550
  6606  003E8C  2828               	incf	___flmul@temp^0,w,c
  6607  003E8E  A0D8               	btfss	status,0,c
  6608  003E90  EF4C  F01F         	goto	u2551
  6609  003E94  EF4E  F01F         	goto	u2550
  6610  003E98                     u2551:
  6611  003E98  EF58  F01F         	goto	l2584
  6612  003E9C                     u2550:
  6613  003E9C  0E00               	movlw	0
  6614  003E9E  6E24               	movwf	___flmul@prod^0,c
  6615  003EA0  0E00               	movlw	0
  6616  003EA2  6E25               	movwf	(___flmul@prod+1)^0,c
  6617  003EA4  0E80               	movlw	128
  6618  003EA6  6E26               	movwf	(___flmul@prod+2)^0,c
  6619  003EA8  0E7F               	movlw	127
  6620  003EAA  6E27               	movwf	(___flmul@prod+3)^0,c
  6621  003EAC  EF86  F01F         	goto	l2596
  6622  003EB0                     l2584:
  6623  003EB0  BE29               	btfsc	(___flmul@temp+1)^0,7,c
  6624  003EB2  EF65  F01F         	goto	u2560
  6625  003EB6  5029               	movf	(___flmul@temp+1)^0,w,c
  6626  003EB8  E106               	bnz	u2561
  6627  003EBA  0428               	decf	___flmul@temp^0,w,c
  6628  003EBC  B0D8               	btfsc	status,0,c
  6629  003EBE  EF63  F01F         	goto	u2561
  6630  003EC2  EF65  F01F         	goto	u2560
  6631  003EC6                     u2561:
  6632  003EC6  EF71  F01F         	goto	l691
  6633  003ECA                     u2560:
  6634  003ECA  0E00               	movlw	0
  6635  003ECC  6E24               	movwf	___flmul@prod^0,c
  6636  003ECE  0E00               	movlw	0
  6637  003ED0  6E25               	movwf	(___flmul@prod+1)^0,c
  6638  003ED2  0E00               	movlw	0
  6639  003ED4  6E26               	movwf	(___flmul@prod+2)^0,c
  6640  003ED6  0E00               	movlw	0
  6641  003ED8  6E27               	movwf	(___flmul@prod+3)^0,c
  6642  003EDA  0E00               	movlw	0
  6643  003EDC  6E1D               	movwf	___flmul@sign^0,c
  6644  003EDE  EF86  F01F         	goto	l2596
  6645  003EE2                     l691:
  6646  003EE2  C028  F023         	movff	___flmul@temp,___flmul@bexp
  6647  003EE6  0EFF               	movlw	255
  6648  003EE8  1624               	andwf	___flmul@prod^0,f,c
  6649  003EEA  0EFF               	movlw	255
  6650  003EEC  1625               	andwf	(___flmul@prod+1)^0,f,c
  6651  003EEE  0E7F               	movlw	127
  6652  003EF0  1626               	andwf	(___flmul@prod+2)^0,f,c
  6653  003EF2  0E00               	movlw	0
  6654  003EF4  1627               	andwf	(___flmul@prod+3)^0,f,c
  6655  003EF6  A023               	btfss	___flmul@bexp^0,0,c
  6656  003EF8  EF80  F01F         	goto	u2571
  6657  003EFC  EF82  F01F         	goto	u2570
  6658  003F00                     u2571:
  6659  003F00  EF83  F01F         	goto	l2594
  6660  003F04                     u2570:
  6661  003F04  8E26               	bsf	(___flmul@prod+2)^0,7,c
  6662  003F06                     l2594:
  6663  003F06  90D8               	bcf	status,0,c
  6664  003F08  3023               	rrcf	___flmul@bexp^0,w,c
  6665  003F0A  6E27               	movwf	(___flmul@prod+3)^0,c
  6666  003F0C                     l2596:
  6667  003F0C  501D               	movf	___flmul@sign^0,w,c
  6668  003F0E  1227               	iorwf	(___flmul@prod+3)^0,f,c
  6669  003F10  C024  F011         	movff	___flmul@prod,?___flmul
  6670  003F14  C025  F012         	movff	___flmul@prod+1,?___flmul+1
  6671  003F18  C026  F013         	movff	___flmul@prod+2,?___flmul+2
  6672  003F1C  C027  F014         	movff	___flmul@prod+3,?___flmul+3
  6673  003F20                     l678:
  6674  003F20  0012               	return		;funcret
  6675  003F22                     __end_of___flmul:
  6676                           	callstack 0
  6677                           
  6678 ;; *************** function _fabsf *****************
  6679 ;; Defined at:
  6680 ;;		line 4 in file "D:\MPLABxIDE\pic\sources\c99\common\fabsf.c"
  6681 ;; Parameters:    Size  Location     Type
  6682 ;;  x               4    0[COMRAM] float 
  6683 ;; Auto vars:     Size  Location     Type
  6684 ;;  u               4    4[COMRAM] struct .
  6685 ;; Return value:  Size  Location     Type
  6686 ;;                  4    0[COMRAM] float 
  6687 ;; Registers used:
  6688 ;;		status,2, status,0
  6689 ;; Tracked objects:
  6690 ;;		On entry : 0/0
  6691 ;;		On exit  : 0/0
  6692 ;;		Unchanged: 0/0
  6693 ;; Data sizes:     COMRAM   BANK0   BANK1   BANK2   BANK3   BANK4   BANK5   BANK6   BANK7
  6694 ;;      Params:         4       0       0       0       0       0       0       0       0
  6695 ;;      Locals:         4       0       0       0       0       0       0       0       0
  6696 ;;      Temps:          0       0       0       0       0       0       0       0       0
  6697 ;;      Totals:         8       0       0       0       0       0       0       0       0
  6698 ;;Total ram usage:        8 bytes
  6699 ;; Hardware stack levels used: 1
  6700 ;; This function calls:
  6701 ;;		Nothing
  6702 ;; This function is called by:
  6703 ;;		_powf
  6704 ;; This function uses a non-reentrant model
  6705 ;;
  6706                           
  6707                           	psect	text10
  6708  004CCC                     __ptext10:
  6709                           	callstack 0
  6710  004CCC                     _fabsf:
  6711                           	callstack 28
  6712  004CCC  C092  F005         	movff	fabsf@F465,fabsf@u
  6713  004CD0  C093  F006         	movff	fabsf@F465+1,fabsf@u+1
  6714  004CD4  C094  F007         	movff	fabsf@F465+2,fabsf@u+2
  6715  004CD8  C095  F008         	movff	fabsf@F465+3,fabsf@u+3
  6716  004CDC  C001  F005         	movff	fabsf@x,fabsf@u
  6717  004CE0  C002  F006         	movff	fabsf@x+1,fabsf@u+1
  6718  004CE4  C003  F007         	movff	fabsf@x+2,fabsf@u+2
  6719  004CE8  C004  F008         	movff	fabsf@x+3,fabsf@u+3
  6720  004CEC  9E08               	bcf	(fabsf@u+3)^0,7,c
  6721  004CEE  C005  F001         	movff	fabsf@u,?_fabsf
  6722  004CF2  C006  F002         	movff	fabsf@u+1,?_fabsf+1
  6723  004CF6  C007  F003         	movff	fabsf@u+2,?_fabsf+2
  6724  004CFA  C008  F004         	movff	fabsf@u+3,?_fabsf+3
  6725  004CFE  0012               	return		;funcret
  6726  004D00                     __end_of_fabsf:
  6727                           	callstack 0
  6728                           
  6729 ;; *************** function ___xxtofl *****************
  6730 ;; Defined at:
  6731 ;;		line 10 in file "D:\MPLABxIDE\pic\sources\c99\common\xxtofl.c"
  6732 ;; Parameters:    Size  Location     Type
  6733 ;;  sign            1    wreg     unsigned char 
  6734 ;;  val             4    0[COMRAM] long 
  6735 ;; Auto vars:     Size  Location     Type
  6736 ;;  sign            1    8[COMRAM] unsigned char 
  6737 ;;  arg             4   10[COMRAM] unsigned long 
  6738 ;;  exp             1    9[COMRAM] unsigned char 
  6739 ;; Return value:  Size  Location     Type
  6740 ;;                  4    0[COMRAM] unsigned char 
  6741 ;; Registers used:
  6742 ;;		wreg, status,2, status,0
  6743 ;; Tracked objects:
  6744 ;;		On entry : 0/0
  6745 ;;		On exit  : 0/0
  6746 ;;		Unchanged: 0/0
  6747 ;; Data sizes:     COMRAM   BANK0   BANK1   BANK2   BANK3   BANK4   BANK5   BANK6   BANK7
  6748 ;;      Params:         4       0       0       0       0       0       0       0       0
  6749 ;;      Locals:         6       0       0       0       0       0       0       0       0
  6750 ;;      Temps:          4       0       0       0       0       0       0       0       0
  6751 ;;      Totals:        14       0       0       0       0       0       0       0       0
  6752 ;;Total ram usage:       14 bytes
  6753 ;; Hardware stack levels used: 1
  6754 ;; This function calls:
  6755 ;;		Nothing
  6756 ;; This function is called by:
  6757 ;;		_rndNumGen
  6758 ;;		_powf
  6759 ;; This function uses a non-reentrant model
  6760 ;;
  6761                           
  6762                           	psect	text11
  6763  0046B2                     __ptext11:
  6764                           	callstack 0
  6765  0046B2                     ___xxtofl:
  6766                           	callstack 28
  6767                           
  6768                           ;incstack = 0
  6769                           ;___xxtofl@sign stored from wreg
  6770  0046B2  6E09               	movwf	___xxtofl@sign^0,c
  6771  0046B4  5009               	movf	___xxtofl@sign^0,w,c
  6772  0046B6  B4D8               	btfsc	status,2,c
  6773  0046B8  EF60  F023         	goto	u2891
  6774  0046BC  EF62  F023         	goto	u2890
  6775  0046C0                     u2891:
  6776  0046C0  EF84  F023         	goto	l715
  6777  0046C4                     u2890:
  6778  0046C4  BE04               	btfsc	(___xxtofl@val+3)^0,7,c
  6779  0046C6  EF69  F023         	goto	u2900
  6780  0046CA  EF67  F023         	goto	u2901
  6781  0046CE                     u2901:
  6782  0046CE  EF84  F023         	goto	l715
  6783  0046D2                     u2900:
  6784  0046D2  C001  F005         	movff	___xxtofl@val,??___xxtofl
  6785  0046D6  C002  F006         	movff	___xxtofl@val+1,??___xxtofl+1
  6786  0046DA  C003  F007         	movff	___xxtofl@val+2,??___xxtofl+2
  6787  0046DE  C004  F008         	movff	___xxtofl@val+3,??___xxtofl+3
  6788  0046E2  1E05               	comf	??___xxtofl^0,f,c
  6789  0046E4  1E06               	comf	(??___xxtofl+1)^0,f,c
  6790  0046E6  1E07               	comf	(??___xxtofl+2)^0,f,c
  6791  0046E8  1E08               	comf	(??___xxtofl+3)^0,f,c
  6792  0046EA  2A05               	incf	??___xxtofl^0,f,c
  6793  0046EC  0E00               	movlw	0
  6794  0046EE  2206               	addwfc	(??___xxtofl+1)^0,f,c
  6795  0046F0  2207               	addwfc	(??___xxtofl+2)^0,f,c
  6796  0046F2  2208               	addwfc	(??___xxtofl+3)^0,f,c
  6797  0046F4  C005  F00B         	movff	??___xxtofl,___xxtofl@arg
  6798  0046F8  C006  F00C         	movff	??___xxtofl+1,___xxtofl@arg+1
  6799  0046FC  C007  F00D         	movff	??___xxtofl+2,___xxtofl@arg+2
  6800  004700  C008  F00E         	movff	??___xxtofl+3,___xxtofl@arg+3
  6801  004704  EF8C  F023         	goto	l2798
  6802  004708                     l715:
  6803  004708  C001  F00B         	movff	___xxtofl@val,___xxtofl@arg
  6804  00470C  C002  F00C         	movff	___xxtofl@val+1,___xxtofl@arg+1
  6805  004710  C003  F00D         	movff	___xxtofl@val+2,___xxtofl@arg+2
  6806  004714  C004  F00E         	movff	___xxtofl@val+3,___xxtofl@arg+3
  6807  004718                     l2798:
  6808  004718  5001               	movf	___xxtofl@val^0,w,c
  6809  00471A  1002               	iorwf	(___xxtofl@val+1)^0,w,c
  6810  00471C  1003               	iorwf	(___xxtofl@val+2)^0,w,c
  6811  00471E  1004               	iorwf	(___xxtofl@val+3)^0,w,c
  6812  004720  A4D8               	btfss	status,2,c
  6813  004722  EF95  F023         	goto	u2911
  6814  004726  EF97  F023         	goto	u2910
  6815  00472A                     u2911:
  6816  00472A  EFA1  F023         	goto	l2804
  6817  00472E                     u2910:
  6818  00472E  0E00               	movlw	0
  6819  004730  6E01               	movwf	?___xxtofl^0,c
  6820  004732  0E00               	movlw	0
  6821  004734  6E02               	movwf	(?___xxtofl+1)^0,c
  6822  004736  0E00               	movlw	0
  6823  004738  6E03               	movwf	(?___xxtofl+2)^0,c
  6824  00473A  0E00               	movlw	0
  6825  00473C  6E04               	movwf	(?___xxtofl+3)^0,c
  6826  00473E  EF32  F024         	goto	l718
  6827  004742                     l2804:
  6828  004742  0E96               	movlw	150
  6829  004744  6E0A               	movwf	___xxtofl@exp^0,c
  6830  004746  EFAB  F023         	goto	l2808
  6831  00474A                     l2806:
  6832  00474A  2A0A               	incf	___xxtofl@exp^0,f,c
  6833  00474C  90D8               	bcf	status,0,c
  6834  00474E  320E               	rrcf	(___xxtofl@arg+3)^0,f,c
  6835  004750  320D               	rrcf	(___xxtofl@arg+2)^0,f,c
  6836  004752  320C               	rrcf	(___xxtofl@arg+1)^0,f,c
  6837  004754  320B               	rrcf	___xxtofl@arg^0,f,c
  6838  004756                     l2808:
  6839  004756  0E00               	movlw	0
  6840  004758  140B               	andwf	___xxtofl@arg^0,w,c
  6841  00475A  6E05               	movwf	??___xxtofl^0,c
  6842  00475C  0E00               	movlw	0
  6843  00475E  140C               	andwf	(___xxtofl@arg+1)^0,w,c
  6844  004760  6E06               	movwf	(??___xxtofl+1)^0,c
  6845  004762  0E00               	movlw	0
  6846  004764  140D               	andwf	(___xxtofl@arg+2)^0,w,c
  6847  004766  6E07               	movwf	(??___xxtofl+2)^0,c
  6848  004768  0EFE               	movlw	254
  6849  00476A  140E               	andwf	(___xxtofl@arg+3)^0,w,c
  6850  00476C  6E08               	movwf	(??___xxtofl+3)^0,c
  6851  00476E  5005               	movf	??___xxtofl^0,w,c
  6852  004770  1006               	iorwf	(??___xxtofl+1)^0,w,c
  6853  004772  1007               	iorwf	(??___xxtofl+2)^0,w,c
  6854  004774  1008               	iorwf	(??___xxtofl+3)^0,w,c
  6855  004776  A4D8               	btfss	status,2,c
  6856  004778  EFC0  F023         	goto	u2921
  6857  00477C  EFC2  F023         	goto	u2920
  6858  004780                     u2921:
  6859  004780  EFA5  F023         	goto	l2806
  6860  004784                     u2920:
  6861  004784  EFD0  F023         	goto	l722
  6862  004788                     l2810:
  6863  004788  2A0A               	incf	___xxtofl@exp^0,f,c
  6864  00478A  0E01               	movlw	1
  6865  00478C  260B               	addwf	___xxtofl@arg^0,f,c
  6866  00478E  0E00               	movlw	0
  6867  004790  220C               	addwfc	(___xxtofl@arg+1)^0,f,c
  6868  004792  220D               	addwfc	(___xxtofl@arg+2)^0,f,c
  6869  004794  220E               	addwfc	(___xxtofl@arg+3)^0,f,c
  6870  004796  90D8               	bcf	status,0,c
  6871  004798  320E               	rrcf	(___xxtofl@arg+3)^0,f,c
  6872  00479A  320D               	rrcf	(___xxtofl@arg+2)^0,f,c
  6873  00479C  320C               	rrcf	(___xxtofl@arg+1)^0,f,c
  6874  00479E  320B               	rrcf	___xxtofl@arg^0,f,c
  6875  0047A0                     l722:
  6876  0047A0  0E00               	movlw	0
  6877  0047A2  140B               	andwf	___xxtofl@arg^0,w,c
  6878  0047A4  6E05               	movwf	??___xxtofl^0,c
  6879  0047A6  0E00               	movlw	0
  6880  0047A8  140C               	andwf	(___xxtofl@arg+1)^0,w,c
  6881  0047AA  6E06               	movwf	(??___xxtofl+1)^0,c
  6882  0047AC  0E00               	movlw	0
  6883  0047AE  140D               	andwf	(___xxtofl@arg+2)^0,w,c
  6884  0047B0  6E07               	movwf	(??___xxtofl+2)^0,c
  6885  0047B2  0EFF               	movlw	255
  6886  0047B4  140E               	andwf	(___xxtofl@arg+3)^0,w,c
  6887  0047B6  6E08               	movwf	(??___xxtofl+3)^0,c
  6888  0047B8  5005               	movf	??___xxtofl^0,w,c
  6889  0047BA  1006               	iorwf	(??___xxtofl+1)^0,w,c
  6890  0047BC  1007               	iorwf	(??___xxtofl+2)^0,w,c
  6891  0047BE  1008               	iorwf	(??___xxtofl+3)^0,w,c
  6892  0047C0  A4D8               	btfss	status,2,c
  6893  0047C2  EFE5  F023         	goto	u2931
  6894  0047C6  EFE7  F023         	goto	u2930
  6895  0047CA                     u2931:
  6896  0047CA  EFC4  F023         	goto	l2810
  6897  0047CE                     u2930:
  6898  0047CE  EFEF  F023         	goto	l2818
  6899  0047D2                     l2816:
  6900  0047D2  060A               	decf	___xxtofl@exp^0,f,c
  6901  0047D4  90D8               	bcf	status,0,c
  6902  0047D6  360B               	rlcf	___xxtofl@arg^0,f,c
  6903  0047D8  360C               	rlcf	(___xxtofl@arg+1)^0,f,c
  6904  0047DA  360D               	rlcf	(___xxtofl@arg+2)^0,f,c
  6905  0047DC  360E               	rlcf	(___xxtofl@arg+3)^0,f,c
  6906  0047DE                     l2818:
  6907  0047DE  BE0D               	btfsc	(___xxtofl@arg+2)^0,7,c
  6908  0047E0  EFF4  F023         	goto	u2941
  6909  0047E4  EFF6  F023         	goto	u2940
  6910  0047E8                     u2941:
  6911  0047E8  EFFE  F023         	goto	l729
  6912  0047EC                     u2940:
  6913  0047EC  0E02               	movlw	2
  6914  0047EE  600A               	cpfslt	___xxtofl@exp^0,c
  6915  0047F0  EFFC  F023         	goto	u2951
  6916  0047F4  EFFE  F023         	goto	u2950
  6917  0047F8                     u2951:
  6918  0047F8  EFE9  F023         	goto	l2816
  6919  0047FC                     u2950:
  6920  0047FC                     l729:
  6921  0047FC  B00A               	btfsc	___xxtofl@exp^0,0,c
  6922  0047FE  EF03  F024         	goto	u2961
  6923  004802  EF05  F024         	goto	u2960
  6924  004806                     u2961:
  6925  004806  EF06  F024         	goto	l2824
  6926  00480A                     u2960:
  6927  00480A  9E0D               	bcf	(___xxtofl@arg+2)^0,7,c
  6928  00480C                     l2824:
  6929  00480C  90D8               	bcf	status,0,c
  6930  00480E  320A               	rrcf	___xxtofl@exp^0,f,c
  6931  004810  C00A  F005         	movff	___xxtofl@exp,??___xxtofl
  6932  004814  6A06               	clrf	(??___xxtofl+1)^0,c
  6933  004816  6A07               	clrf	(??___xxtofl+2)^0,c
  6934  004818  6A08               	clrf	(??___xxtofl+3)^0,c
  6935  00481A  C005  F008         	movff	??___xxtofl,??___xxtofl+3
  6936  00481E  6A07               	clrf	(??___xxtofl+2)^0,c
  6937  004820  6A06               	clrf	(??___xxtofl+1)^0,c
  6938  004822  6A05               	clrf	??___xxtofl^0,c
  6939  004824  5005               	movf	??___xxtofl^0,w,c
  6940  004826  120B               	iorwf	___xxtofl@arg^0,f,c
  6941  004828  5006               	movf	(??___xxtofl+1)^0,w,c
  6942  00482A  120C               	iorwf	(___xxtofl@arg+1)^0,f,c
  6943  00482C  5007               	movf	(??___xxtofl+2)^0,w,c
  6944  00482E  120D               	iorwf	(___xxtofl@arg+2)^0,f,c
  6945  004830  5008               	movf	(??___xxtofl+3)^0,w,c
  6946  004832  120E               	iorwf	(___xxtofl@arg+3)^0,f,c
  6947  004834  5009               	movf	___xxtofl@sign^0,w,c
  6948  004836  B4D8               	btfsc	status,2,c
  6949  004838  EF20  F024         	goto	u2971
  6950  00483C  EF22  F024         	goto	u2970
  6951  004840                     u2971:
  6952  004840  EF2A  F024         	goto	l2834
  6953  004844                     u2970:
  6954  004844  BE04               	btfsc	(___xxtofl@val+3)^0,7,c
  6955  004846  EF29  F024         	goto	u2980
  6956  00484A  EF27  F024         	goto	u2981
  6957  00484E                     u2981:
  6958  00484E  EF2A  F024         	goto	l2834
  6959  004852                     u2980:
  6960  004852  8E0E               	bsf	(___xxtofl@arg+3)^0,7,c
  6961  004854                     l2834:
  6962  004854  C00B  F001         	movff	___xxtofl@arg,?___xxtofl
  6963  004858  C00C  F002         	movff	___xxtofl@arg+1,?___xxtofl+1
  6964  00485C  C00D  F003         	movff	___xxtofl@arg+2,?___xxtofl+2
  6965  004860  C00E  F004         	movff	___xxtofl@arg+3,?___xxtofl+3
  6966  004864                     l718:
  6967  004864  0012               	return		;funcret
  6968  004866                     __end_of___xxtofl:
  6969                           	callstack 0
  6970                           
  6971 ;; *************** function ___flsub *****************
  6972 ;; Defined at:
  6973 ;;		line 245 in file "D:\MPLABxIDE\pic\sources\c99\common\sprcadd.c"
  6974 ;; Parameters:    Size  Location     Type
  6975 ;;  b               4   41[COMRAM] unsigned char 
  6976 ;;  a               4   45[COMRAM] unsigned char 
  6977 ;; Auto vars:     Size  Location     Type
  6978 ;;		None
  6979 ;; Return value:  Size  Location     Type
  6980 ;;                  4   41[COMRAM] unsigned char 
  6981 ;; Registers used:
  6982 ;;		wreg, status,2, status,0, cstack
  6983 ;; Tracked objects:
  6984 ;;		On entry : 0/0
  6985 ;;		On exit  : 0/0
  6986 ;;		Unchanged: 0/0
  6987 ;; Data sizes:     COMRAM   BANK0   BANK1   BANK2   BANK3   BANK4   BANK5   BANK6   BANK7
  6988 ;;      Params:         8       0       0       0       0       0       0       0       0
  6989 ;;      Locals:         0       0       0       0       0       0       0       0       0
  6990 ;;      Temps:          0       0       0       0       0       0       0       0       0
  6991 ;;      Totals:         8       0       0       0       0       0       0       0       0
  6992 ;;Total ram usage:        8 bytes
  6993 ;; Hardware stack levels used: 1
  6994 ;; Hardware stack levels required when called: 1
  6995 ;; This function calls:
  6996 ;;		___fladd
  6997 ;; This function is called by:
  6998 ;;		_powf
  6999 ;; This function uses a non-reentrant model
  7000 ;;
  7001                           
  7002                           	psect	text12
  7003  004C4E                     __ptext12:
  7004                           	callstack 0
  7005  004C4E                     ___flsub:
  7006                           	callstack 27
  7007  004C4E  0E00               	movlw	0
  7008  004C50  1A2E               	xorwf	___flsub@a^0,f,c
  7009  004C52  0E00               	movlw	0
  7010  004C54  1A2F               	xorwf	(___flsub@a+1)^0,f,c
  7011  004C56  0E00               	movlw	0
  7012  004C58  1A30               	xorwf	(___flsub@a+2)^0,f,c
  7013  004C5A  0E80               	movlw	128
  7014  004C5C  1A31               	xorwf	(___flsub@a+3)^0,f,c
  7015  004C5E  C02A  F001         	movff	___flsub@b,___fladd@b
  7016  004C62  C02B  F002         	movff	___flsub@b+1,___fladd@b+1
  7017  004C66  C02C  F003         	movff	___flsub@b+2,___fladd@b+2
  7018  004C6A  C02D  F004         	movff	___flsub@b+3,___fladd@b+3
  7019  004C6E  C02E  F005         	movff	___flsub@a,___fladd@a
  7020  004C72  C02F  F006         	movff	___flsub@a+1,___fladd@a+1
  7021  004C76  C030  F007         	movff	___flsub@a+2,___fladd@a+2
  7022  004C7A  C031  F008         	movff	___flsub@a+3,___fladd@a+3
  7023  004C7E  EC1C  F01B         	call	___fladd	;wreg free
  7024  004C82  C001  F02A         	movff	?___fladd,?___flsub
  7025  004C86  C002  F02B         	movff	?___fladd+1,?___flsub+1
  7026  004C8A  C003  F02C         	movff	?___fladd+2,?___flsub+2
  7027  004C8E  C004  F02D         	movff	?___fladd+3,?___flsub+3
  7028  004C92  0012               	return		;funcret
  7029  004C94                     __end_of___flsub:
  7030                           	callstack 0
  7031                           
  7032 ;; *************** function ___fladd *****************
  7033 ;; Defined at:
  7034 ;;		line 10 in file "D:\MPLABxIDE\pic\sources\c99\common\sprcadd.c"
  7035 ;; Parameters:    Size  Location     Type
  7036 ;;  b               4    0[COMRAM] unsigned char 
  7037 ;;  a               4    4[COMRAM] unsigned char 
  7038 ;; Auto vars:     Size  Location     Type
  7039 ;;  grs             1   15[COMRAM] unsigned char 
  7040 ;;  bexp            1   14[COMRAM] unsigned char 
  7041 ;;  aexp            1   13[COMRAM] unsigned char 
  7042 ;;  signs           1   12[COMRAM] unsigned char 
  7043 ;; Return value:  Size  Location     Type
  7044 ;;                  4    0[COMRAM] unsigned char 
  7045 ;; Registers used:
  7046 ;;		wreg, status,2, status,0
  7047 ;; Tracked objects:
  7048 ;;		On entry : 0/0
  7049 ;;		On exit  : 0/0
  7050 ;;		Unchanged: 0/0
  7051 ;; Data sizes:     COMRAM   BANK0   BANK1   BANK2   BANK3   BANK4   BANK5   BANK6   BANK7
  7052 ;;      Params:         8       0       0       0       0       0       0       0       0
  7053 ;;      Locals:         4       0       0       0       0       0       0       0       0
  7054 ;;      Temps:          4       0       0       0       0       0       0       0       0
  7055 ;;      Totals:        16       0       0       0       0       0       0       0       0
  7056 ;;Total ram usage:       16 bytes
  7057 ;; Hardware stack levels used: 1
  7058 ;; This function calls:
  7059 ;;		Nothing
  7060 ;; This function is called by:
  7061 ;;		___flsub
  7062 ;;		_powf
  7063 ;;		_sqrtf
  7064 ;; This function uses a non-reentrant model
  7065 ;;
  7066                           
  7067                           	psect	text13
  7068  003638                     __ptext13:
  7069                           	callstack 0
  7070  003638                     ___fladd:
  7071                           	callstack 27
  7072  003638  5004               	movf	(___fladd@b+3)^0,w,c
  7073  00363A  0B80               	andlw	128
  7074  00363C  6E0D               	movwf	___fladd@signs^0,c
  7075  00363E  5004               	movf	(___fladd@b+3)^0,w,c
  7076  003640  2404               	addwf	(___fladd@b+3)^0,w,c
  7077  003642  6E0F               	movwf	___fladd@bexp^0,c
  7078  003644  AE03               	btfss	(___fladd@b+2)^0,7,c
  7079  003646  EF27  F01B         	goto	u2001
  7080  00364A  EF29  F01B         	goto	u2000
  7081  00364E                     u2001:
  7082  00364E  EF2A  F01B         	goto	l2276
  7083  003652                     u2000:
  7084  003652  800F               	bsf	___fladd@bexp^0,0,c
  7085  003654                     l2276:
  7086  003654  500F               	movf	___fladd@bexp^0,w,c
  7087  003656  B4D8               	btfsc	status,2,c
  7088  003658  EF30  F01B         	goto	u2011
  7089  00365C  EF32  F01B         	goto	u2010
  7090  003660                     u2011:
  7091  003660  EF47  F01B         	goto	l2286
  7092  003664                     u2010:
  7093  003664  280F               	incf	___fladd@bexp^0,w,c
  7094  003666  A4D8               	btfss	status,2,c
  7095  003668  EF38  F01B         	goto	u2021
  7096  00366C  EF3A  F01B         	goto	u2020
  7097  003670                     u2021:
  7098  003670  EF42  F01B         	goto	l2282
  7099  003674                     u2020:
  7100  003674  0E00               	movlw	0
  7101  003676  6E01               	movwf	___fladd@b^0,c
  7102  003678  0E00               	movlw	0
  7103  00367A  6E02               	movwf	(___fladd@b+1)^0,c
  7104  00367C  0E00               	movlw	0
  7105  00367E  6E03               	movwf	(___fladd@b+2)^0,c
  7106  003680  0E00               	movlw	0
  7107  003682  6E04               	movwf	(___fladd@b+3)^0,c
  7108  003684                     l2282:
  7109  003684  8E03               	bsf	(___fladd@b+2)^0,7,c
  7110  003686  0E00               	movlw	0
  7111  003688  6E04               	movwf	(___fladd@b+3)^0,c
  7112  00368A  EF4F  F01B         	goto	l2288
  7113  00368E                     l2286:
  7114  00368E  0E00               	movlw	0
  7115  003690  6E01               	movwf	___fladd@b^0,c
  7116  003692  0E00               	movlw	0
  7117  003694  6E02               	movwf	(___fladd@b+1)^0,c
  7118  003696  0E00               	movlw	0
  7119  003698  6E03               	movwf	(___fladd@b+2)^0,c
  7120  00369A  0E00               	movlw	0
  7121  00369C  6E04               	movwf	(___fladd@b+3)^0,c
  7122  00369E                     l2288:
  7123  00369E  5008               	movf	(___fladd@a+3)^0,w,c
  7124  0036A0  0B80               	andlw	128
  7125  0036A2  6E0E               	movwf	___fladd@aexp^0,c
  7126  0036A4  500D               	movf	___fladd@signs^0,w,c
  7127  0036A6  180E               	xorwf	___fladd@aexp^0,w,c
  7128  0036A8  B4D8               	btfsc	status,2,c
  7129  0036AA  EF59  F01B         	goto	u2031
  7130  0036AE  EF5B  F01B         	goto	u2030
  7131  0036B2                     u2031:
  7132  0036B2  EF5C  F01B         	goto	l2294
  7133  0036B6                     u2030:
  7134  0036B6  8C0D               	bsf	___fladd@signs^0,6,c
  7135  0036B8                     l2294:
  7136  0036B8  5008               	movf	(___fladd@a+3)^0,w,c
  7137  0036BA  2408               	addwf	(___fladd@a+3)^0,w,c
  7138  0036BC  6E0E               	movwf	___fladd@aexp^0,c
  7139  0036BE  AE07               	btfss	(___fladd@a+2)^0,7,c
  7140  0036C0  EF64  F01B         	goto	u2041
  7141  0036C4  EF66  F01B         	goto	u2040
  7142  0036C8                     u2041:
  7143  0036C8  EF67  F01B         	goto	l2300
  7144  0036CC                     u2040:
  7145  0036CC  800E               	bsf	___fladd@aexp^0,0,c
  7146  0036CE                     l2300:
  7147  0036CE  500E               	movf	___fladd@aexp^0,w,c
  7148  0036D0  B4D8               	btfsc	status,2,c
  7149  0036D2  EF6D  F01B         	goto	u2051
  7150  0036D6  EF6F  F01B         	goto	u2050
  7151  0036DA                     u2051:
  7152  0036DA  EF84  F01B         	goto	l2310
  7153  0036DE                     u2050:
  7154  0036DE  280E               	incf	___fladd@aexp^0,w,c
  7155  0036E0  A4D8               	btfss	status,2,c
  7156  0036E2  EF75  F01B         	goto	u2061
  7157  0036E6  EF77  F01B         	goto	u2060
  7158  0036EA                     u2061:
  7159  0036EA  EF7F  F01B         	goto	l2306
  7160  0036EE                     u2060:
  7161  0036EE  0E00               	movlw	0
  7162  0036F0  6E05               	movwf	___fladd@a^0,c
  7163  0036F2  0E00               	movlw	0
  7164  0036F4  6E06               	movwf	(___fladd@a+1)^0,c
  7165  0036F6  0E00               	movlw	0
  7166  0036F8  6E07               	movwf	(___fladd@a+2)^0,c
  7167  0036FA  0E00               	movlw	0
  7168  0036FC  6E08               	movwf	(___fladd@a+3)^0,c
  7169  0036FE                     l2306:
  7170  0036FE  8E07               	bsf	(___fladd@a+2)^0,7,c
  7171  003700  0E00               	movlw	0
  7172  003702  6E08               	movwf	(___fladd@a+3)^0,c
  7173  003704  EF8C  F01B         	goto	l2312
  7174  003708                     l2310:
  7175  003708  0E00               	movlw	0
  7176  00370A  6E05               	movwf	___fladd@a^0,c
  7177  00370C  0E00               	movlw	0
  7178  00370E  6E06               	movwf	(___fladd@a+1)^0,c
  7179  003710  0E00               	movlw	0
  7180  003712  6E07               	movwf	(___fladd@a+2)^0,c
  7181  003714  0E00               	movlw	0
  7182  003716  6E08               	movwf	(___fladd@a+3)^0,c
  7183  003718                     l2312:
  7184  003718  500F               	movf	___fladd@bexp^0,w,c
  7185  00371A  5C0E               	subwf	___fladd@aexp^0,w,c
  7186  00371C  B0D8               	btfsc	status,0,c
  7187  00371E  EF93  F01B         	goto	u2071
  7188  003722  EF95  F01B         	goto	u2070
  7189  003726                     u2071:
  7190  003726  EFBC  F01B         	goto	l2348
  7191  00372A                     u2070:
  7192  00372A  AC0D               	btfss	___fladd@signs^0,6,c
  7193  00372C  EF9A  F01B         	goto	u2081
  7194  003730  EF9C  F01B         	goto	u2080
  7195  003734                     u2081:
  7196  003734  EF9E  F01B         	goto	l2318
  7197  003738                     u2080:
  7198  003738  0E80               	movlw	128
  7199  00373A  1A0D               	xorwf	___fladd@signs^0,f,c
  7200  00373C                     l2318:
  7201  00373C  C00F  F010         	movff	___fladd@bexp,___fladd@grs
  7202  003740  C00E  F00F         	movff	___fladd@aexp,___fladd@bexp
  7203  003744  C010  F00E         	movff	___fladd@grs,___fladd@aexp
  7204  003748  C001  F010         	movff	___fladd@b,___fladd@grs
  7205  00374C  C005  F001         	movff	___fladd@a,___fladd@b
  7206  003750  C010  F005         	movff	___fladd@grs,___fladd@a
  7207  003754  C002  F010         	movff	___fladd@b+1,___fladd@grs
  7208  003758  C006  F002         	movff	___fladd@a+1,___fladd@b+1
  7209  00375C  C010  F006         	movff	___fladd@grs,___fladd@a+1
  7210  003760  C003  F010         	movff	___fladd@b+2,___fladd@grs
  7211  003764  C007  F003         	movff	___fladd@a+2,___fladd@b+2
  7212  003768  C010  F007         	movff	___fladd@grs,___fladd@a+2
  7213  00376C  C004  F010         	movff	___fladd@b+3,___fladd@grs
  7214  003770  C008  F004         	movff	___fladd@a+3,___fladd@b+3
  7215  003774  C010  F008         	movff	___fladd@grs,___fladd@a+3
  7216  003778                     l2348:
  7217  003778  0E00               	movlw	0
  7218  00377A  6E10               	movwf	___fladd@grs^0,c
  7219  00377C  500F               	movf	___fladd@bexp^0,w,c
  7220  00377E  C00E  F009         	movff	___fladd@aexp,??___fladd
  7221  003782  6A0A               	clrf	(??___fladd+1)^0,c
  7222  003784  5E09               	subwf	??___fladd^0,f,c
  7223  003786  0E00               	movlw	0
  7224  003788  5A0A               	subwfb	(??___fladd+1)^0,f,c
  7225  00378A  BE0A               	btfsc	(??___fladd+1)^0,7,c
  7226  00378C  EFD1  F01B         	goto	u2091
  7227  003790  500A               	movf	(??___fladd+1)^0,w,c
  7228  003792  E109               	bnz	u2090
  7229  003794  0E1A               	movlw	26
  7230  003796  5C09               	subwf	??___fladd^0,w,c
  7231  003798  A0D8               	btfss	status,0,c
  7232  00379A  EFD1  F01B         	goto	u2091
  7233  00379E  EFD3  F01B         	goto	u2090
  7234  0037A2                     u2091:
  7235  0037A2  EF0A  F01C         	goto	l589
  7236  0037A6                     u2090:
  7237  0037A6  5001               	movf	___fladd@b^0,w,c
  7238  0037A8  1002               	iorwf	(___fladd@b+1)^0,w,c
  7239  0037AA  1003               	iorwf	(___fladd@b+2)^0,w,c
  7240  0037AC  1004               	iorwf	(___fladd@b+3)^0,w,c
  7241  0037AE  A4D8               	btfss	status,2,c
  7242  0037B0  EFDC  F01B         	goto	u2101
  7243  0037B4  EFDF  F01B         	goto	u2100
  7244  0037B8                     u2101:
  7245  0037B8  0E01               	movlw	1
  7246  0037BA  EFE0  F01B         	goto	u2110
  7247  0037BE                     u2100:
  7248  0037BE  0E00               	movlw	0
  7249  0037C0                     u2110:
  7250  0037C0  6E10               	movwf	___fladd@grs^0,c
  7251  0037C2  0E00               	movlw	0
  7252  0037C4  6E01               	movwf	___fladd@b^0,c
  7253  0037C6  0E00               	movlw	0
  7254  0037C8  6E02               	movwf	(___fladd@b+1)^0,c
  7255  0037CA  0E00               	movlw	0
  7256  0037CC  6E03               	movwf	(___fladd@b+2)^0,c
  7257  0037CE  0E00               	movlw	0
  7258  0037D0  6E04               	movwf	(___fladd@b+3)^0,c
  7259  0037D2  C00E  F00F         	movff	___fladd@aexp,___fladd@bexp
  7260  0037D6  EF13  F01C         	goto	l588
  7261  0037DA                     l590:
  7262  0037DA  A010               	btfss	___fladd@grs^0,0,c
  7263  0037DC  EFF2  F01B         	goto	u2121
  7264  0037E0  EFF4  F01B         	goto	u2120
  7265  0037E4                     u2121:
  7266  0037E4  EFFA  F01B         	goto	l2360
  7267  0037E8                     u2120:
  7268  0037E8  90D8               	bcf	status,0,c
  7269  0037EA  3010               	rrcf	___fladd@grs^0,w,c
  7270  0037EC  0901               	iorlw	1
  7271  0037EE  6E10               	movwf	___fladd@grs^0,c
  7272  0037F0  EFFC  F01B         	goto	l2362
  7273  0037F4                     l2360:
  7274  0037F4  90D8               	bcf	status,0,c
  7275  0037F6  3210               	rrcf	___fladd@grs^0,f,c
  7276  0037F8                     l2362:
  7277  0037F8  A001               	btfss	___fladd@b^0,0,c
  7278  0037FA  EF01  F01C         	goto	u2131
  7279  0037FE  EF03  F01C         	goto	u2130
  7280  003802                     u2131:
  7281  003802  EF04  F01C         	goto	l2366
  7282  003806                     u2130:
  7283  003806  8E10               	bsf	___fladd@grs^0,7,c
  7284  003808                     l2366:
  7285  003808  3404               	rlcf	(___fladd@b+3)^0,w,c
  7286  00380A  3204               	rrcf	(___fladd@b+3)^0,f,c
  7287  00380C  3203               	rrcf	(___fladd@b+2)^0,f,c
  7288  00380E  3202               	rrcf	(___fladd@b+1)^0,f,c
  7289  003810  3201               	rrcf	___fladd@b^0,f,c
  7290  003812  2A0F               	incf	___fladd@bexp^0,f,c
  7291  003814                     l589:
  7292  003814  500E               	movf	___fladd@aexp^0,w,c
  7293  003816  5C0F               	subwf	___fladd@bexp^0,w,c
  7294  003818  A0D8               	btfss	status,0,c
  7295  00381A  EF11  F01C         	goto	u2141
  7296  00381E  EF13  F01C         	goto	u2140
  7297  003822                     u2141:
  7298  003822  EFED  F01B         	goto	l590
  7299  003826                     u2140:
  7300  003826                     l588:
  7301  003826  BC0D               	btfsc	___fladd@signs^0,6,c
  7302  003828  EF18  F01C         	goto	u2151
  7303  00382C  EF1A  F01C         	goto	u2150
  7304  003830                     u2151:
  7305  003830  EF5A  F01C         	goto	l2394
  7306  003834                     u2150:
  7307  003834  500F               	movf	___fladd@bexp^0,w,c
  7308  003836  A4D8               	btfss	status,2,c
  7309  003838  EF20  F01C         	goto	u2161
  7310  00383C  EF22  F01C         	goto	u2160
  7311  003840                     u2161:
  7312  003840  EF2C  F01C         	goto	l2376
  7313  003844                     u2160:
  7314  003844  0E00               	movlw	0
  7315  003846  6E01               	movwf	?___fladd^0,c
  7316  003848  0E00               	movlw	0
  7317  00384A  6E02               	movwf	(?___fladd+1)^0,c
  7318  00384C  0E00               	movlw	0
  7319  00384E  6E03               	movwf	(?___fladd+2)^0,c
  7320  003850  0E00               	movlw	0
  7321  003852  6E04               	movwf	(?___fladd+3)^0,c
  7322  003854  EF7B  F01D         	goto	l597
  7323  003858                     l2376:
  7324  003858  5005               	movf	___fladd@a^0,w,c
  7325  00385A  2601               	addwf	___fladd@b^0,f,c
  7326  00385C  5006               	movf	(___fladd@a+1)^0,w,c
  7327  00385E  2202               	addwfc	(___fladd@b+1)^0,f,c
  7328  003860  5007               	movf	(___fladd@a+2)^0,w,c
  7329  003862  2203               	addwfc	(___fladd@b+2)^0,f,c
  7330  003864  5008               	movf	(___fladd@a+3)^0,w,c
  7331  003866  2204               	addwfc	(___fladd@b+3)^0,f,c
  7332  003868  A004               	btfss	(___fladd@b+3)^0,0,c
  7333  00386A  EF39  F01C         	goto	u2171
  7334  00386E  EF3B  F01C         	goto	u2170
  7335  003872                     u2171:
  7336  003872  EFE7  F01C         	goto	l2430
  7337  003876                     u2170:
  7338  003876  A010               	btfss	___fladd@grs^0,0,c
  7339  003878  EF40  F01C         	goto	u2181
  7340  00387C  EF42  F01C         	goto	u2180
  7341  003880                     u2181:
  7342  003880  EF48  F01C         	goto	l2384
  7343  003884                     u2180:
  7344  003884  90D8               	bcf	status,0,c
  7345  003886  3010               	rrcf	___fladd@grs^0,w,c
  7346  003888  0901               	iorlw	1
  7347  00388A  6E10               	movwf	___fladd@grs^0,c
  7348  00388C  EF4A  F01C         	goto	l2386
  7349  003890                     l2384:
  7350  003890  90D8               	bcf	status,0,c
  7351  003892  3210               	rrcf	___fladd@grs^0,f,c
  7352  003894                     l2386:
  7353  003894  A001               	btfss	___fladd@b^0,0,c
  7354  003896  EF4F  F01C         	goto	u2191
  7355  00389A  EF51  F01C         	goto	u2190
  7356  00389E                     u2191:
  7357  00389E  EF52  F01C         	goto	l2390
  7358  0038A2                     u2190:
  7359  0038A2  8E10               	bsf	___fladd@grs^0,7,c
  7360  0038A4                     l2390:
  7361  0038A4  3404               	rlcf	(___fladd@b+3)^0,w,c
  7362  0038A6  3204               	rrcf	(___fladd@b+3)^0,f,c
  7363  0038A8  3203               	rrcf	(___fladd@b+2)^0,f,c
  7364  0038AA  3202               	rrcf	(___fladd@b+1)^0,f,c
  7365  0038AC  3201               	rrcf	___fladd@b^0,f,c
  7366  0038AE  2A0F               	incf	___fladd@bexp^0,f,c
  7367  0038B0  EFE7  F01C         	goto	l2430
  7368  0038B4                     l2394:
  7369  0038B4  5005               	movf	___fladd@a^0,w,c
  7370  0038B6  5C01               	subwf	___fladd@b^0,w,c
  7371  0038B8  5006               	movf	(___fladd@a+1)^0,w,c
  7372  0038BA  5802               	subwfb	(___fladd@b+1)^0,w,c
  7373  0038BC  5007               	movf	(___fladd@a+2)^0,w,c
  7374  0038BE  5803               	subwfb	(___fladd@b+2)^0,w,c
  7375  0038C0  5004               	movf	(___fladd@b+3)^0,w,c
  7376  0038C2  0A80               	xorlw	128
  7377  0038C4  6E09               	movwf	??___fladd^0,c
  7378  0038C6  5008               	movf	(___fladd@a+3)^0,w,c
  7379  0038C8  0A80               	xorlw	128
  7380  0038CA  5809               	subwfb	??___fladd^0,w,c
  7381  0038CC  B0D8               	btfsc	status,0,c
  7382  0038CE  EF6B  F01C         	goto	u2201
  7383  0038D2  EF6D  F01C         	goto	u2200
  7384  0038D6                     u2201:
  7385  0038D6  EF98  F01C         	goto	l2404
  7386  0038DA                     u2200:
  7387  0038DA  5001               	movf	___fladd@b^0,w,c
  7388  0038DC  5C05               	subwf	___fladd@a^0,w,c
  7389  0038DE  6E09               	movwf	??___fladd^0,c
  7390  0038E0  5002               	movf	(___fladd@b+1)^0,w,c
  7391  0038E2  5806               	subwfb	(___fladd@a+1)^0,w,c
  7392  0038E4  6E0A               	movwf	(??___fladd+1)^0,c
  7393  0038E6  5003               	movf	(___fladd@b+2)^0,w,c
  7394  0038E8  5807               	subwfb	(___fladd@a+2)^0,w,c
  7395  0038EA  6E0B               	movwf	(??___fladd+2)^0,c
  7396  0038EC  5004               	movf	(___fladd@b+3)^0,w,c
  7397  0038EE  5808               	subwfb	(___fladd@a+3)^0,w,c
  7398  0038F0  6E0C               	movwf	(??___fladd+3)^0,c
  7399  0038F2  0EFF               	movlw	255
  7400  0038F4  2409               	addwf	??___fladd^0,w,c
  7401  0038F6  6E01               	movwf	___fladd@b^0,c
  7402  0038F8  0EFF               	movlw	255
  7403  0038FA  200A               	addwfc	(??___fladd+1)^0,w,c
  7404  0038FC  6E02               	movwf	(___fladd@b+1)^0,c
  7405  0038FE  0EFF               	movlw	255
  7406  003900  200B               	addwfc	(??___fladd+2)^0,w,c
  7407  003902  6E03               	movwf	(___fladd@b+2)^0,c
  7408  003904  0EFF               	movlw	255
  7409  003906  200C               	addwfc	(??___fladd+3)^0,w,c
  7410  003908  6E04               	movwf	(___fladd@b+3)^0,c
  7411  00390A  0E80               	movlw	128
  7412  00390C  1A0D               	xorwf	___fladd@signs^0,f,c
  7413  00390E  6C10               	negf	___fladd@grs^0,c
  7414  003910  5010               	movf	___fladd@grs^0,w,c
  7415  003912  A4D8               	btfss	status,2,c
  7416  003914  EF8E  F01C         	goto	u2211
  7417  003918  EF90  F01C         	goto	u2210
  7418  00391C                     u2211:
  7419  00391C  EFA0  F01C         	goto	l605
  7420  003920                     u2210:
  7421  003920  0E01               	movlw	1
  7422  003922  2601               	addwf	___fladd@b^0,f,c
  7423  003924  0E00               	movlw	0
  7424  003926  2202               	addwfc	(___fladd@b+1)^0,f,c
  7425  003928  2203               	addwfc	(___fladd@b+2)^0,f,c
  7426  00392A  2204               	addwfc	(___fladd@b+3)^0,f,c
  7427  00392C  EFA0  F01C         	goto	l605
  7428  003930                     l2404:
  7429  003930  5005               	movf	___fladd@a^0,w,c
  7430  003932  5E01               	subwf	___fladd@b^0,f,c
  7431  003934  5006               	movf	(___fladd@a+1)^0,w,c
  7432  003936  5A02               	subwfb	(___fladd@b+1)^0,f,c
  7433  003938  5007               	movf	(___fladd@a+2)^0,w,c
  7434  00393A  5A03               	subwfb	(___fladd@b+2)^0,f,c
  7435  00393C  5008               	movf	(___fladd@a+3)^0,w,c
  7436  00393E  5A04               	subwfb	(___fladd@b+3)^0,f,c
  7437  003940                     l605:
  7438  003940  5001               	movf	___fladd@b^0,w,c
  7439  003942  1002               	iorwf	(___fladd@b+1)^0,w,c
  7440  003944  1003               	iorwf	(___fladd@b+2)^0,w,c
  7441  003946  1004               	iorwf	(___fladd@b+3)^0,w,c
  7442  003948  A4D8               	btfss	status,2,c
  7443  00394A  EFA9  F01C         	goto	u2221
  7444  00394E  EFAB  F01C         	goto	u2220
  7445  003952                     u2221:
  7446  003952  EFE0  F01C         	goto	l2428
  7447  003956                     u2220:
  7448  003956  5010               	movf	___fladd@grs^0,w,c
  7449  003958  A4D8               	btfss	status,2,c
  7450  00395A  EFB1  F01C         	goto	u2231
  7451  00395E  EFB3  F01C         	goto	u2230
  7452  003962                     u2231:
  7453  003962  EFE0  F01C         	goto	l2428
  7454  003966                     u2230:
  7455  003966  0E00               	movlw	0
  7456  003968  6E01               	movwf	?___fladd^0,c
  7457  00396A  0E00               	movlw	0
  7458  00396C  6E02               	movwf	(?___fladd+1)^0,c
  7459  00396E  0E00               	movlw	0
  7460  003970  6E03               	movwf	(?___fladd+2)^0,c
  7461  003972  0E00               	movlw	0
  7462  003974  6E04               	movwf	(?___fladd+3)^0,c
  7463  003976  EF7B  F01D         	goto	l597
  7464  00397A                     l2412:
  7465  00397A  90D8               	bcf	status,0,c
  7466  00397C  3601               	rlcf	___fladd@b^0,f,c
  7467  00397E  3602               	rlcf	(___fladd@b+1)^0,f,c
  7468  003980  3603               	rlcf	(___fladd@b+2)^0,f,c
  7469  003982  3604               	rlcf	(___fladd@b+3)^0,f,c
  7470  003984  AE10               	btfss	___fladd@grs^0,7,c
  7471  003986  EFC7  F01C         	goto	u2241
  7472  00398A  EFC9  F01C         	goto	u2240
  7473  00398E                     u2241:
  7474  00398E  EFCA  F01C         	goto	l2418
  7475  003992                     u2240:
  7476  003992  8001               	bsf	___fladd@b^0,0,c
  7477  003994                     l2418:
  7478  003994  A010               	btfss	___fladd@grs^0,0,c
  7479  003996  EFCF  F01C         	goto	u2251
  7480  00399A  EFD1  F01C         	goto	u2250
  7481  00399E                     u2251:
  7482  00399E  EFD5  F01C         	goto	l2422
  7483  0039A2                     u2250:
  7484  0039A2  80D8               	bsf	status,0,c
  7485  0039A4  3610               	rlcf	___fladd@grs^0,f,c
  7486  0039A6  EFD7  F01C         	goto	l2424
  7487  0039AA                     l2422:
  7488  0039AA  90D8               	bcf	status,0,c
  7489  0039AC  3610               	rlcf	___fladd@grs^0,f,c
  7490  0039AE                     l2424:
  7491  0039AE  500F               	movf	___fladd@bexp^0,w,c
  7492  0039B0  B4D8               	btfsc	status,2,c
  7493  0039B2  EFDD  F01C         	goto	u2261
  7494  0039B6  EFDF  F01C         	goto	u2260
  7495  0039BA                     u2261:
  7496  0039BA  EFE0  F01C         	goto	l2428
  7497  0039BE                     u2260:
  7498  0039BE  060F               	decf	___fladd@bexp^0,f,c
  7499  0039C0                     l2428:
  7500  0039C0  AE03               	btfss	(___fladd@b+2)^0,7,c
  7501  0039C2  EFE5  F01C         	goto	u2271
  7502  0039C6  EFE7  F01C         	goto	u2270
  7503  0039CA                     u2271:
  7504  0039CA  EFBD  F01C         	goto	l2412
  7505  0039CE                     u2270:
  7506  0039CE                     l2430:
  7507  0039CE  0E00               	movlw	0
  7508  0039D0  6E0E               	movwf	___fladd@aexp^0,c
  7509  0039D2  AE10               	btfss	___fladd@grs^0,7,c
  7510  0039D4  EFEE  F01C         	goto	u2281
  7511  0039D8  EFF0  F01C         	goto	u2280
  7512  0039DC                     u2281:
  7513  0039DC  EF08  F01D         	goto	l614
  7514  0039E0                     u2280:
  7515  0039E0  C010  F009         	movff	___fladd@grs,??___fladd
  7516  0039E4  0E7F               	movlw	127
  7517  0039E6  1609               	andwf	??___fladd^0,f,c
  7518  0039E8  B4D8               	btfsc	status,2,c
  7519  0039EA  EFF9  F01C         	goto	u2291
  7520  0039EE  EFFB  F01C         	goto	u2290
  7521  0039F2                     u2291:
  7522  0039F2  EFFF  F01C         	goto	l615
  7523  0039F6                     u2290:
  7524  0039F6                     l2436:
  7525  0039F6  0E01               	movlw	1
  7526  0039F8  6E0E               	movwf	___fladd@aexp^0,c
  7527  0039FA  EF08  F01D         	goto	l614
  7528  0039FE                     l615:
  7529  0039FE  A001               	btfss	___fladd@b^0,0,c
  7530  003A00  EF04  F01D         	goto	u2301
  7531  003A04  EF06  F01D         	goto	u2300
  7532  003A08                     u2301:
  7533  003A08  EF08  F01D         	goto	l614
  7534  003A0C                     u2300:
  7535  003A0C  EFFB  F01C         	goto	l2436
  7536  003A10                     l614:
  7537  003A10  500E               	movf	___fladd@aexp^0,w,c
  7538  003A12  B4D8               	btfsc	status,2,c
  7539  003A14  EF0E  F01D         	goto	u2311
  7540  003A18  EF10  F01D         	goto	u2310
  7541  003A1C                     u2311:
  7542  003A1C  EF3B  F01D         	goto	l2448
  7543  003A20                     u2310:
  7544  003A20  0E01               	movlw	1
  7545  003A22  2601               	addwf	___fladd@b^0,f,c
  7546  003A24  0E00               	movlw	0
  7547  003A26  2202               	addwfc	(___fladd@b+1)^0,f,c
  7548  003A28  2203               	addwfc	(___fladd@b+2)^0,f,c
  7549  003A2A  2204               	addwfc	(___fladd@b+3)^0,f,c
  7550  003A2C  A004               	btfss	(___fladd@b+3)^0,0,c
  7551  003A2E  EF1B  F01D         	goto	u2321
  7552  003A32  EF1D  F01D         	goto	u2320
  7553  003A36                     u2321:
  7554  003A36  EF3B  F01D         	goto	l2448
  7555  003A3A                     u2320:
  7556  003A3A  C001  F009         	movff	___fladd@b,??___fladd
  7557  003A3E  C002  F00A         	movff	___fladd@b+1,??___fladd+1
  7558  003A42  C003  F00B         	movff	___fladd@b+2,??___fladd+2
  7559  003A46  C004  F00C         	movff	___fladd@b+3,??___fladd+3
  7560  003A4A  340C               	rlcf	(??___fladd+3)^0,w,c
  7561  003A4C  320C               	rrcf	(??___fladd+3)^0,f,c
  7562  003A4E  320B               	rrcf	(??___fladd+2)^0,f,c
  7563  003A50  320A               	rrcf	(??___fladd+1)^0,f,c
  7564  003A52  3209               	rrcf	??___fladd^0,f,c
  7565  003A54  C009  F001         	movff	??___fladd,___fladd@b
  7566  003A58  C00A  F002         	movff	??___fladd+1,___fladd@b+1
  7567  003A5C  C00B  F003         	movff	??___fladd+2,___fladd@b+2
  7568  003A60  C00C  F004         	movff	??___fladd+3,___fladd@b+3
  7569  003A64  280F               	incf	___fladd@bexp^0,w,c
  7570  003A66  B4D8               	btfsc	status,2,c
  7571  003A68  EF38  F01D         	goto	u2331
  7572  003A6C  EF3A  F01D         	goto	u2330
  7573  003A70                     u2331:
  7574  003A70  EF3B  F01D         	goto	l2448
  7575  003A74                     u2330:
  7576  003A74  2A0F               	incf	___fladd@bexp^0,f,c
  7577  003A76                     l2448:
  7578  003A76  280F               	incf	___fladd@bexp^0,w,c
  7579  003A78  B4D8               	btfsc	status,2,c
  7580  003A7A  EF41  F01D         	goto	u2341
  7581  003A7E  EF43  F01D         	goto	u2340
  7582  003A82                     u2341:
  7583  003A82  EF4B  F01D         	goto	l2452
  7584  003A86                     u2340:
  7585  003A86  500F               	movf	___fladd@bexp^0,w,c
  7586  003A88  A4D8               	btfss	status,2,c
  7587  003A8A  EF49  F01D         	goto	u2351
  7588  003A8E  EF4B  F01D         	goto	u2350
  7589  003A92                     u2351:
  7590  003A92  EF5D  F01D         	goto	l2456
  7591  003A96                     u2350:
  7592  003A96                     l2452:
  7593  003A96  0E00               	movlw	0
  7594  003A98  6E01               	movwf	___fladd@b^0,c
  7595  003A9A  0E00               	movlw	0
  7596  003A9C  6E02               	movwf	(___fladd@b+1)^0,c
  7597  003A9E  0E00               	movlw	0
  7598  003AA0  6E03               	movwf	(___fladd@b+2)^0,c
  7599  003AA2  0E00               	movlw	0
  7600  003AA4  6E04               	movwf	(___fladd@b+3)^0,c
  7601  003AA6  500F               	movf	___fladd@bexp^0,w,c
  7602  003AA8  A4D8               	btfss	status,2,c
  7603  003AAA  EF59  F01D         	goto	u2361
  7604  003AAE  EF5B  F01D         	goto	u2360
  7605  003AB2                     u2361:
  7606  003AB2  EF5D  F01D         	goto	l2456
  7607  003AB6                     u2360:
  7608  003AB6  0E00               	movlw	0
  7609  003AB8  6E0D               	movwf	___fladd@signs^0,c
  7610  003ABA                     l2456:
  7611  003ABA  A00F               	btfss	___fladd@bexp^0,0,c
  7612  003ABC  EF62  F01D         	goto	u2371
  7613  003AC0  EF64  F01D         	goto	u2370
  7614  003AC4                     u2371:
  7615  003AC4  EF67  F01D         	goto	l2460
  7616  003AC8                     u2370:
  7617  003AC8  8E03               	bsf	(___fladd@b+2)^0,7,c
  7618  003ACA  EF68  F01D         	goto	l2462
  7619  003ACE                     l2460:
  7620  003ACE  9E03               	bcf	(___fladd@b+2)^0,7,c
  7621  003AD0                     l2462:
  7622  003AD0  90D8               	bcf	status,0,c
  7623  003AD2  300F               	rrcf	___fladd@bexp^0,w,c
  7624  003AD4  6E04               	movwf	(___fladd@b+3)^0,c
  7625  003AD6  AE0D               	btfss	___fladd@signs^0,7,c
  7626  003AD8  EF70  F01D         	goto	u2381
  7627  003ADC  EF72  F01D         	goto	u2380
  7628  003AE0                     u2381:
  7629  003AE0  EF73  F01D         	goto	l2468
  7630  003AE4                     u2380:
  7631  003AE4  8E04               	bsf	(___fladd@b+3)^0,7,c
  7632  003AE6                     l2468:
  7633  003AE6  C001  F001         	movff	___fladd@b,?___fladd
  7634  003AEA  C002  F002         	movff	___fladd@b+1,?___fladd+1
  7635  003AEE  C003  F003         	movff	___fladd@b+2,?___fladd+2
  7636  003AF2  C004  F004         	movff	___fladd@b+3,?___fladd+3
  7637  003AF6                     l597:
  7638  003AF6  0012               	return		;funcret
  7639  003AF8                     __end_of___fladd:
  7640                           	callstack 0
  7641                           
  7642 ;; *************** function ___flneg *****************
  7643 ;; Defined at:
  7644 ;;		line 15 in file "D:\MPLABxIDE\pic\sources\c99\common\flneg.c"
  7645 ;; Parameters:    Size  Location     Type
  7646 ;;  f1              4    0[COMRAM] unsigned char 
  7647 ;; Auto vars:     Size  Location     Type
  7648 ;;		None
  7649 ;; Return value:  Size  Location     Type
  7650 ;;                  4    0[COMRAM] unsigned char 
  7651 ;; Registers used:
  7652 ;;		wreg, status,2, status,0
  7653 ;; Tracked objects:
  7654 ;;		On entry : 0/0
  7655 ;;		On exit  : 0/0
  7656 ;;		Unchanged: 0/0
  7657 ;; Data sizes:     COMRAM   BANK0   BANK1   BANK2   BANK3   BANK4   BANK5   BANK6   BANK7
  7658 ;;      Params:         4       0       0       0       0       0       0       0       0
  7659 ;;      Locals:         0       0       0       0       0       0       0       0       0
  7660 ;;      Temps:          0       0       0       0       0       0       0       0       0
  7661 ;;      Totals:         4       0       0       0       0       0       0       0       0
  7662 ;;Total ram usage:        4 bytes
  7663 ;; Hardware stack levels used: 1
  7664 ;; This function calls:
  7665 ;;		Nothing
  7666 ;; This function is called by:
  7667 ;;		_powf
  7668 ;; This function uses a non-reentrant model
  7669 ;;
  7670                           
  7671                           	psect	text14
  7672  004C94                     __ptext14:
  7673                           	callstack 0
  7674  004C94                     ___flneg:
  7675                           	callstack 28
  7676  004C94  5001               	movf	___flneg@f1^0,w,c
  7677  004C96  1002               	iorwf	(___flneg@f1+1)^0,w,c
  7678  004C98  1003               	iorwf	(___flneg@f1+2)^0,w,c
  7679  004C9A  1004               	iorwf	(___flneg@f1+3)^0,w,c
  7680  004C9C  B4D8               	btfsc	status,2,c
  7681  004C9E  EF53  F026         	goto	u2881
  7682  004CA2  EF55  F026         	goto	u2880
  7683  004CA6                     u2881:
  7684  004CA6  EF5D  F026         	goto	l2788
  7685  004CAA                     u2880:
  7686  004CAA  0E00               	movlw	0
  7687  004CAC  1A01               	xorwf	___flneg@f1^0,f,c
  7688  004CAE  0E00               	movlw	0
  7689  004CB0  1A02               	xorwf	(___flneg@f1+1)^0,f,c
  7690  004CB2  0E00               	movlw	0
  7691  004CB4  1A03               	xorwf	(___flneg@f1+2)^0,f,c
  7692  004CB6  0E80               	movlw	128
  7693  004CB8  1A04               	xorwf	(___flneg@f1+3)^0,f,c
  7694  004CBA                     l2788:
  7695  004CBA  C001  F001         	movff	___flneg@f1,?___flneg
  7696  004CBE  C002  F002         	movff	___flneg@f1+1,?___flneg+1
  7697  004CC2  C003  F003         	movff	___flneg@f1+2,?___flneg+2
  7698  004CC6  C004  F004         	movff	___flneg@f1+3,?___flneg+3
  7699  004CCA  0012               	return		;funcret
  7700  004CCC                     __end_of___flneg:
  7701                           	callstack 0
  7702                           
  7703 ;; *************** function ___fldiv *****************
  7704 ;; Defined at:
  7705 ;;		line 11 in file "D:\MPLABxIDE\pic\sources\c99\common\sprcdiv.c"
  7706 ;; Parameters:    Size  Location     Type
  7707 ;;  b               4   49[COMRAM] unsigned char 
  7708 ;;  a               4   53[COMRAM] unsigned char 
  7709 ;; Auto vars:     Size  Location     Type
  7710 ;;  grs             4   68[COMRAM] unsigned long 
  7711 ;;  rem             4   61[COMRAM] unsigned long 
  7712 ;;  new_exp         2   66[COMRAM] short 
  7713 ;;  aexp            1   73[COMRAM] unsigned char 
  7714 ;;  bexp            1   72[COMRAM] unsigned char 
  7715 ;;  sign            1   65[COMRAM] unsigned char 
  7716 ;; Return value:  Size  Location     Type
  7717 ;;                  4   49[COMRAM] unsigned char 
  7718 ;; Registers used:
  7719 ;;		wreg, status,2, status,0
  7720 ;; Tracked objects:
  7721 ;;		On entry : 0/0
  7722 ;;		On exit  : 0/0
  7723 ;;		Unchanged: 0/0
  7724 ;; Data sizes:     COMRAM   BANK0   BANK1   BANK2   BANK3   BANK4   BANK5   BANK6   BANK7
  7725 ;;      Params:         8       0       0       0       0       0       0       0       0
  7726 ;;      Locals:        13       0       0       0       0       0       0       0       0
  7727 ;;      Temps:          4       0       0       0       0       0       0       0       0
  7728 ;;      Totals:        25       0       0       0       0       0       0       0       0
  7729 ;;Total ram usage:       25 bytes
  7730 ;; Hardware stack levels used: 1
  7731 ;; This function calls:
  7732 ;;		Nothing
  7733 ;; This function is called by:
  7734 ;;		_powf
  7735 ;; This function uses a non-reentrant model
  7736 ;;
  7737                           
  7738                           	psect	text15
  7739  003F22                     __ptext15:
  7740                           	callstack 0
  7741  003F22                     ___fldiv:
  7742                           	callstack 28
  7743  003F22  5035               	movf	(___fldiv@b+3)^0,w,c
  7744  003F24  0B80               	andlw	128
  7745  003F26  6E42               	movwf	___fldiv@sign^0,c
  7746  003F28  5035               	movf	(___fldiv@b+3)^0,w,c
  7747  003F2A  2435               	addwf	(___fldiv@b+3)^0,w,c
  7748  003F2C  6E49               	movwf	___fldiv@bexp^0,c
  7749  003F2E  AE34               	btfss	(___fldiv@b+2)^0,7,c
  7750  003F30  EF9C  F01F         	goto	u2651
  7751  003F34  EF9E  F01F         	goto	u2650
  7752  003F38                     u2651:
  7753  003F38  EF9F  F01F         	goto	l2646
  7754  003F3C                     u2650:
  7755  003F3C  8049               	bsf	___fldiv@bexp^0,0,c
  7756  003F3E                     l2646:
  7757  003F3E  5049               	movf	___fldiv@bexp^0,w,c
  7758  003F40  B4D8               	btfsc	status,2,c
  7759  003F42  EFA5  F01F         	goto	u2661
  7760  003F46  EFA7  F01F         	goto	u2660
  7761  003F4A                     u2661:
  7762  003F4A  EFBC  F01F         	goto	l2656
  7763  003F4E                     u2660:
  7764  003F4E  2849               	incf	___fldiv@bexp^0,w,c
  7765  003F50  A4D8               	btfss	status,2,c
  7766  003F52  EFAD  F01F         	goto	u2671
  7767  003F56  EFAF  F01F         	goto	u2670
  7768  003F5A                     u2671:
  7769  003F5A  EFB7  F01F         	goto	l2652
  7770  003F5E                     u2670:
  7771  003F5E  0E00               	movlw	0
  7772  003F60  6E32               	movwf	___fldiv@b^0,c
  7773  003F62  0E00               	movlw	0
  7774  003F64  6E33               	movwf	(___fldiv@b+1)^0,c
  7775  003F66  0E00               	movlw	0
  7776  003F68  6E34               	movwf	(___fldiv@b+2)^0,c
  7777  003F6A  0E00               	movlw	0
  7778  003F6C  6E35               	movwf	(___fldiv@b+3)^0,c
  7779  003F6E                     l2652:
  7780  003F6E  8E34               	bsf	(___fldiv@b+2)^0,7,c
  7781  003F70  0E00               	movlw	0
  7782  003F72  6E35               	movwf	(___fldiv@b+3)^0,c
  7783  003F74  EFC4  F01F         	goto	l2658
  7784  003F78                     l2656:
  7785  003F78  0E00               	movlw	0
  7786  003F7A  6E32               	movwf	___fldiv@b^0,c
  7787  003F7C  0E00               	movlw	0
  7788  003F7E  6E33               	movwf	(___fldiv@b+1)^0,c
  7789  003F80  0E00               	movlw	0
  7790  003F82  6E34               	movwf	(___fldiv@b+2)^0,c
  7791  003F84  0E00               	movlw	0
  7792  003F86  6E35               	movwf	(___fldiv@b+3)^0,c
  7793  003F88                     l2658:
  7794  003F88  5039               	movf	(___fldiv@a+3)^0,w,c
  7795  003F8A  0B80               	andlw	128
  7796  003F8C  1A42               	xorwf	___fldiv@sign^0,f,c
  7797  003F8E  5039               	movf	(___fldiv@a+3)^0,w,c
  7798  003F90  2439               	addwf	(___fldiv@a+3)^0,w,c
  7799  003F92  6E4A               	movwf	___fldiv@aexp^0,c
  7800  003F94  AE38               	btfss	(___fldiv@a+2)^0,7,c
  7801  003F96  EFCF  F01F         	goto	u2681
  7802  003F9A  EFD1  F01F         	goto	u2680
  7803  003F9E                     u2681:
  7804  003F9E  EFD2  F01F         	goto	l2666
  7805  003FA2                     u2680:
  7806  003FA2  804A               	bsf	___fldiv@aexp^0,0,c
  7807  003FA4                     l2666:
  7808  003FA4  504A               	movf	___fldiv@aexp^0,w,c
  7809  003FA6  B4D8               	btfsc	status,2,c
  7810  003FA8  EFD8  F01F         	goto	u2691
  7811  003FAC  EFDA  F01F         	goto	u2690
  7812  003FB0                     u2691:
  7813  003FB0  EFEF  F01F         	goto	l2676
  7814  003FB4                     u2690:
  7815  003FB4  284A               	incf	___fldiv@aexp^0,w,c
  7816  003FB6  A4D8               	btfss	status,2,c
  7817  003FB8  EFE0  F01F         	goto	u2701
  7818  003FBC  EFE2  F01F         	goto	u2700
  7819  003FC0                     u2701:
  7820  003FC0  EFEA  F01F         	goto	l2672
  7821  003FC4                     u2700:
  7822  003FC4  0E00               	movlw	0
  7823  003FC6  6E36               	movwf	___fldiv@a^0,c
  7824  003FC8  0E00               	movlw	0
  7825  003FCA  6E37               	movwf	(___fldiv@a+1)^0,c
  7826  003FCC  0E00               	movlw	0
  7827  003FCE  6E38               	movwf	(___fldiv@a+2)^0,c
  7828  003FD0  0E00               	movlw	0
  7829  003FD2  6E39               	movwf	(___fldiv@a+3)^0,c
  7830  003FD4                     l2672:
  7831  003FD4  8E38               	bsf	(___fldiv@a+2)^0,7,c
  7832  003FD6  0E00               	movlw	0
  7833  003FD8  6E39               	movwf	(___fldiv@a+3)^0,c
  7834  003FDA  EFF7  F01F         	goto	l2678
  7835  003FDE                     l2676:
  7836  003FDE  0E00               	movlw	0
  7837  003FE0  6E36               	movwf	___fldiv@a^0,c
  7838  003FE2  0E00               	movlw	0
  7839  003FE4  6E37               	movwf	(___fldiv@a+1)^0,c
  7840  003FE6  0E00               	movlw	0
  7841  003FE8  6E38               	movwf	(___fldiv@a+2)^0,c
  7842  003FEA  0E00               	movlw	0
  7843  003FEC  6E39               	movwf	(___fldiv@a+3)^0,c
  7844  003FEE                     l2678:
  7845  003FEE  5036               	movf	___fldiv@a^0,w,c
  7846  003FF0  1037               	iorwf	(___fldiv@a+1)^0,w,c
  7847  003FF2  1038               	iorwf	(___fldiv@a+2)^0,w,c
  7848  003FF4  1039               	iorwf	(___fldiv@a+3)^0,w,c
  7849  003FF6  A4D8               	btfss	status,2,c
  7850  003FF8  EF00  F020         	goto	u2711
  7851  003FFC  EF02  F020         	goto	u2710
  7852  004000                     u2711:
  7853  004000  EF1A  F020         	goto	l2690
  7854  004004                     u2710:
  7855  004004  0E00               	movlw	0
  7856  004006  6E32               	movwf	___fldiv@b^0,c
  7857  004008  0E00               	movlw	0
  7858  00400A  6E33               	movwf	(___fldiv@b+1)^0,c
  7859  00400C  0E00               	movlw	0
  7860  00400E  6E34               	movwf	(___fldiv@b+2)^0,c
  7861  004010  0E00               	movlw	0
  7862  004012  6E35               	movwf	(___fldiv@b+3)^0,c
  7863  004014  0E80               	movlw	128
  7864  004016  1234               	iorwf	(___fldiv@b+2)^0,f,c
  7865  004018  0E7F               	movlw	127
  7866  00401A  1235               	iorwf	(___fldiv@b+3)^0,f,c
  7867  00401C                     l2684:
  7868  00401C  5042               	movf	___fldiv@sign^0,w,c
  7869  00401E  1235               	iorwf	(___fldiv@b+3)^0,f,c
  7870  004020  C032  F032         	movff	___fldiv@b,?___fldiv
  7871  004024  C033  F033         	movff	___fldiv@b+1,?___fldiv+1
  7872  004028  C034  F034         	movff	___fldiv@b+2,?___fldiv+2
  7873  00402C  C035  F035         	movff	___fldiv@b+3,?___fldiv+3
  7874  004030  EF5D  F021         	goto	l642
  7875  004034                     l2690:
  7876  004034  5049               	movf	___fldiv@bexp^0,w,c
  7877  004036  A4D8               	btfss	status,2,c
  7878  004038  EF20  F020         	goto	u2721
  7879  00403C  EF22  F020         	goto	u2720
  7880  004040                     u2721:
  7881  004040  EF2C  F020         	goto	l2698
  7882  004044                     u2720:
  7883  004044  0E00               	movlw	0
  7884  004046  6E32               	movwf	?___fldiv^0,c
  7885  004048  0E00               	movlw	0
  7886  00404A  6E33               	movwf	(?___fldiv+1)^0,c
  7887  00404C  0E00               	movlw	0
  7888  00404E  6E34               	movwf	(?___fldiv+2)^0,c
  7889  004050  0E00               	movlw	0
  7890  004052  6E35               	movwf	(?___fldiv+3)^0,c
  7891  004054  EF5D  F021         	goto	l642
  7892  004058                     l2698:
  7893  004058  504A               	movf	___fldiv@aexp^0,w,c
  7894  00405A  C049  F03A         	movff	___fldiv@bexp,??___fldiv
  7895  00405E  6A3B               	clrf	(??___fldiv+1)^0,c
  7896  004060  5E3A               	subwf	??___fldiv^0,f,c
  7897  004062  0E00               	movlw	0
  7898  004064  5A3B               	subwfb	(??___fldiv+1)^0,f,c
  7899  004066  0E7F               	movlw	127
  7900  004068  243A               	addwf	??___fldiv^0,w,c
  7901  00406A  6E43               	movwf	___fldiv@new_exp^0,c
  7902  00406C  0E00               	movlw	0
  7903  00406E  203B               	addwfc	(??___fldiv+1)^0,w,c
  7904  004070  6E44               	movwf	(___fldiv@new_exp+1)^0,c
  7905  004072  C032  F03E         	movff	___fldiv@b,___fldiv@rem
  7906  004076  C033  F03F         	movff	___fldiv@b+1,___fldiv@rem+1
  7907  00407A  C034  F040         	movff	___fldiv@b+2,___fldiv@rem+2
  7908  00407E  C035  F041         	movff	___fldiv@b+3,___fldiv@rem+3
  7909  004082  0E00               	movlw	0
  7910  004084  6E32               	movwf	___fldiv@b^0,c
  7911  004086  0E00               	movlw	0
  7912  004088  6E33               	movwf	(___fldiv@b+1)^0,c
  7913  00408A  0E00               	movlw	0
  7914  00408C  6E34               	movwf	(___fldiv@b+2)^0,c
  7915  00408E  0E00               	movlw	0
  7916  004090  6E35               	movwf	(___fldiv@b+3)^0,c
  7917  004092  0E00               	movlw	0
  7918  004094  6E45               	movwf	___fldiv@grs^0,c
  7919  004096  0E00               	movlw	0
  7920  004098  6E46               	movwf	(___fldiv@grs+1)^0,c
  7921  00409A  0E00               	movlw	0
  7922  00409C  6E47               	movwf	(___fldiv@grs+2)^0,c
  7923  00409E  0E00               	movlw	0
  7924  0040A0  6E48               	movwf	(___fldiv@grs+3)^0,c
  7925  0040A2  0E00               	movlw	0
  7926  0040A4  6E4A               	movwf	___fldiv@aexp^0,c
  7927  0040A6  EF8D  F020         	goto	l644
  7928  0040AA                     l2708:
  7929  0040AA  504A               	movf	___fldiv@aexp^0,w,c
  7930  0040AC  B4D8               	btfsc	status,2,c
  7931  0040AE  EF5B  F020         	goto	u2731
  7932  0040B2  EF5D  F020         	goto	u2730
  7933  0040B6                     u2731:
  7934  0040B6  EF74  F020         	goto	l2716
  7935  0040BA                     u2730:
  7936  0040BA  90D8               	bcf	status,0,c
  7937  0040BC  363E               	rlcf	___fldiv@rem^0,f,c
  7938  0040BE  363F               	rlcf	(___fldiv@rem+1)^0,f,c
  7939  0040C0  3640               	rlcf	(___fldiv@rem+2)^0,f,c
  7940  0040C2  3641               	rlcf	(___fldiv@rem+3)^0,f,c
  7941  0040C4  90D8               	bcf	status,0,c
  7942  0040C6  3632               	rlcf	___fldiv@b^0,f,c
  7943  0040C8  3633               	rlcf	(___fldiv@b+1)^0,f,c
  7944  0040CA  3634               	rlcf	(___fldiv@b+2)^0,f,c
  7945  0040CC  3635               	rlcf	(___fldiv@b+3)^0,f,c
  7946  0040CE  AE48               	btfss	(___fldiv@grs+3)^0,7,c
  7947  0040D0  EF6C  F020         	goto	u2741
  7948  0040D4  EF6E  F020         	goto	u2740
  7949  0040D8                     u2741:
  7950  0040D8  EF6F  F020         	goto	l647
  7951  0040DC                     u2740:
  7952  0040DC  8032               	bsf	___fldiv@b^0,0,c
  7953  0040DE                     l647:
  7954  0040DE  90D8               	bcf	status,0,c
  7955  0040E0  3645               	rlcf	___fldiv@grs^0,f,c
  7956  0040E2  3646               	rlcf	(___fldiv@grs+1)^0,f,c
  7957  0040E4  3647               	rlcf	(___fldiv@grs+2)^0,f,c
  7958  0040E6  3648               	rlcf	(___fldiv@grs+3)^0,f,c
  7959  0040E8                     l2716:
  7960  0040E8  5036               	movf	___fldiv@a^0,w,c
  7961  0040EA  5C3E               	subwf	___fldiv@rem^0,w,c
  7962  0040EC  5037               	movf	(___fldiv@a+1)^0,w,c
  7963  0040EE  583F               	subwfb	(___fldiv@rem+1)^0,w,c
  7964  0040F0  5038               	movf	(___fldiv@a+2)^0,w,c
  7965  0040F2  5840               	subwfb	(___fldiv@rem+2)^0,w,c
  7966  0040F4  5039               	movf	(___fldiv@a+3)^0,w,c
  7967  0040F6  5841               	subwfb	(___fldiv@rem+3)^0,w,c
  7968  0040F8  A0D8               	btfss	status,0,c
  7969  0040FA  EF81  F020         	goto	u2751
  7970  0040FE  EF83  F020         	goto	u2750
  7971  004102                     u2751:
  7972  004102  EF8C  F020         	goto	l2722
  7973  004106                     u2750:
  7974  004106  8C48               	bsf	(___fldiv@grs+3)^0,6,c
  7975  004108  5036               	movf	___fldiv@a^0,w,c
  7976  00410A  5E3E               	subwf	___fldiv@rem^0,f,c
  7977  00410C  5037               	movf	(___fldiv@a+1)^0,w,c
  7978  00410E  5A3F               	subwfb	(___fldiv@rem+1)^0,f,c
  7979  004110  5038               	movf	(___fldiv@a+2)^0,w,c
  7980  004112  5A40               	subwfb	(___fldiv@rem+2)^0,f,c
  7981  004114  5039               	movf	(___fldiv@a+3)^0,w,c
  7982  004116  5A41               	subwfb	(___fldiv@rem+3)^0,f,c
  7983  004118                     l2722:
  7984  004118  2A4A               	incf	___fldiv@aexp^0,f,c
  7985  00411A                     l644:
  7986  00411A  0E19               	movlw	25
  7987  00411C  644A               	cpfsgt	___fldiv@aexp^0,c
  7988  00411E  EF93  F020         	goto	u2761
  7989  004122  EF95  F020         	goto	u2760
  7990  004126                     u2761:
  7991  004126  EF55  F020         	goto	l2708
  7992  00412A                     u2760:
  7993  00412A  503E               	movf	___fldiv@rem^0,w,c
  7994  00412C  103F               	iorwf	(___fldiv@rem+1)^0,w,c
  7995  00412E  1040               	iorwf	(___fldiv@rem+2)^0,w,c
  7996  004130  1041               	iorwf	(___fldiv@rem+3)^0,w,c
  7997  004132  B4D8               	btfsc	status,2,c
  7998  004134  EF9E  F020         	goto	u2771
  7999  004138  EFA0  F020         	goto	u2770
  8000  00413C                     u2771:
  8001  00413C  EFB8  F020         	goto	l2734
  8002  004140                     u2770:
  8003  004140  8045               	bsf	___fldiv@grs^0,0,c
  8004  004142  EFB8  F020         	goto	l2734
  8005  004146                     l2728:
  8006  004146  90D8               	bcf	status,0,c
  8007  004148  3632               	rlcf	___fldiv@b^0,f,c
  8008  00414A  3633               	rlcf	(___fldiv@b+1)^0,f,c
  8009  00414C  3634               	rlcf	(___fldiv@b+2)^0,f,c
  8010  00414E  3635               	rlcf	(___fldiv@b+3)^0,f,c
  8011  004150  AE48               	btfss	(___fldiv@grs+3)^0,7,c
  8012  004152  EFAD  F020         	goto	u2781
  8013  004156  EFAF  F020         	goto	u2780
  8014  00415A                     u2781:
  8015  00415A  EFB0  F020         	goto	l653
  8016  00415E                     u2780:
  8017  00415E  8032               	bsf	___fldiv@b^0,0,c
  8018  004160                     l653:
  8019  004160  90D8               	bcf	status,0,c
  8020  004162  3645               	rlcf	___fldiv@grs^0,f,c
  8021  004164  3646               	rlcf	(___fldiv@grs+1)^0,f,c
  8022  004166  3647               	rlcf	(___fldiv@grs+2)^0,f,c
  8023  004168  3648               	rlcf	(___fldiv@grs+3)^0,f,c
  8024  00416A  0643               	decf	___fldiv@new_exp^0,f,c
  8025  00416C  A0D8               	btfss	status,0,c
  8026  00416E  0644               	decf	(___fldiv@new_exp+1)^0,f,c
  8027  004170                     l2734:
  8028  004170  AE34               	btfss	(___fldiv@b+2)^0,7,c
  8029  004172  EFBD  F020         	goto	u2791
  8030  004176  EFBF  F020         	goto	u2790
  8031  00417A                     u2791:
  8032  00417A  EFA3  F020         	goto	l2728
  8033  00417E                     u2790:
  8034  00417E  0E00               	movlw	0
  8035  004180  6E4A               	movwf	___fldiv@aexp^0,c
  8036  004182  AE48               	btfss	(___fldiv@grs+3)^0,7,c
  8037  004184  EFC6  F020         	goto	u2801
  8038  004188  EFC8  F020         	goto	u2800
  8039  00418C                     u2801:
  8040  00418C  EFEC  F020         	goto	l655
  8041  004190                     u2800:
  8042  004190  0EFF               	movlw	255
  8043  004192  1445               	andwf	___fldiv@grs^0,w,c
  8044  004194  6E3A               	movwf	??___fldiv^0,c
  8045  004196  0EFF               	movlw	255
  8046  004198  1446               	andwf	(___fldiv@grs+1)^0,w,c
  8047  00419A  6E3B               	movwf	(??___fldiv+1)^0,c
  8048  00419C  0EFF               	movlw	255
  8049  00419E  1447               	andwf	(___fldiv@grs+2)^0,w,c
  8050  0041A0  6E3C               	movwf	(??___fldiv+2)^0,c
  8051  0041A2  0E7F               	movlw	127
  8052  0041A4  1448               	andwf	(___fldiv@grs+3)^0,w,c
  8053  0041A6  6E3D               	movwf	(??___fldiv+3)^0,c
  8054  0041A8  503A               	movf	??___fldiv^0,w,c
  8055  0041AA  103B               	iorwf	(??___fldiv+1)^0,w,c
  8056  0041AC  103C               	iorwf	(??___fldiv+2)^0,w,c
  8057  0041AE  103D               	iorwf	(??___fldiv+3)^0,w,c
  8058  0041B0  B4D8               	btfsc	status,2,c
  8059  0041B2  EFDD  F020         	goto	u2811
  8060  0041B6  EFDF  F020         	goto	u2810
  8061  0041BA                     u2811:
  8062  0041BA  EFE3  F020         	goto	l656
  8063  0041BE                     u2810:
  8064  0041BE                     l2742:
  8065  0041BE  0E01               	movlw	1
  8066  0041C0  6E4A               	movwf	___fldiv@aexp^0,c
  8067  0041C2  EFEC  F020         	goto	l655
  8068  0041C6                     l656:
  8069  0041C6  A032               	btfss	___fldiv@b^0,0,c
  8070  0041C8  EFE8  F020         	goto	u2821
  8071  0041CC  EFEA  F020         	goto	u2820
  8072  0041D0                     u2821:
  8073  0041D0  EFEC  F020         	goto	l655
  8074  0041D4                     u2820:
  8075  0041D4  EFDF  F020         	goto	l2742
  8076  0041D8                     l655:
  8077  0041D8  504A               	movf	___fldiv@aexp^0,w,c
  8078  0041DA  B4D8               	btfsc	status,2,c
  8079  0041DC  EFF2  F020         	goto	u2831
  8080  0041E0  EFF4  F020         	goto	u2830
  8081  0041E4                     u2831:
  8082  0041E4  EF18  F021         	goto	l2754
  8083  0041E8                     u2830:
  8084  0041E8  0E01               	movlw	1
  8085  0041EA  2632               	addwf	___fldiv@b^0,f,c
  8086  0041EC  0E00               	movlw	0
  8087  0041EE  2233               	addwfc	(___fldiv@b+1)^0,f,c
  8088  0041F0  2234               	addwfc	(___fldiv@b+2)^0,f,c
  8089  0041F2  2235               	addwfc	(___fldiv@b+3)^0,f,c
  8090  0041F4  A035               	btfss	(___fldiv@b+3)^0,0,c
  8091  0041F6  EFFF  F020         	goto	u2841
  8092  0041FA  EF01  F021         	goto	u2840
  8093  0041FE                     u2841:
  8094  0041FE  EF18  F021         	goto	l2754
  8095  004202                     u2840:
  8096  004202  C032  F03A         	movff	___fldiv@b,??___fldiv
  8097  004206  C033  F03B         	movff	___fldiv@b+1,??___fldiv+1
  8098  00420A  C034  F03C         	movff	___fldiv@b+2,??___fldiv+2
  8099  00420E  C035  F03D         	movff	___fldiv@b+3,??___fldiv+3
  8100  004212  343D               	rlcf	(??___fldiv+3)^0,w,c
  8101  004214  323D               	rrcf	(??___fldiv+3)^0,f,c
  8102  004216  323C               	rrcf	(??___fldiv+2)^0,f,c
  8103  004218  323B               	rrcf	(??___fldiv+1)^0,f,c
  8104  00421A  323A               	rrcf	??___fldiv^0,f,c
  8105  00421C  C03A  F032         	movff	??___fldiv,___fldiv@b
  8106  004220  C03B  F033         	movff	??___fldiv+1,___fldiv@b+1
  8107  004224  C03C  F034         	movff	??___fldiv+2,___fldiv@b+2
  8108  004228  C03D  F035         	movff	??___fldiv+3,___fldiv@b+3
  8109  00422C  4A43               	infsnz	___fldiv@new_exp^0,f,c
  8110  00422E  2A44               	incf	(___fldiv@new_exp+1)^0,f,c
  8111  004230                     l2754:
  8112  004230  BE44               	btfsc	(___fldiv@new_exp+1)^0,7,c
  8113  004232  EF23  F021         	goto	u2851
  8114  004236  5044               	movf	(___fldiv@new_exp+1)^0,w,c
  8115  004238  E108               	bnz	u2850
  8116  00423A  2843               	incf	___fldiv@new_exp^0,w,c
  8117  00423C  A0D8               	btfss	status,0,c
  8118  00423E  EF23  F021         	goto	u2851
  8119  004242  EF25  F021         	goto	u2850
  8120  004246                     u2851:
  8121  004246  EF30  F021         	goto	l2758
  8122  00424A                     u2850:
  8123  00424A  0E00               	movlw	0
  8124  00424C  6E44               	movwf	(___fldiv@new_exp+1)^0,c
  8125  00424E  6843               	setf	___fldiv@new_exp^0,c
  8126  004250  0E00               	movlw	0
  8127  004252  6E32               	movwf	___fldiv@b^0,c
  8128  004254  0E00               	movlw	0
  8129  004256  6E33               	movwf	(___fldiv@b+1)^0,c
  8130  004258  0E00               	movlw	0
  8131  00425A  6E34               	movwf	(___fldiv@b+2)^0,c
  8132  00425C  0E00               	movlw	0
  8133  00425E  6E35               	movwf	(___fldiv@b+3)^0,c
  8134  004260                     l2758:
  8135  004260  BE44               	btfsc	(___fldiv@new_exp+1)^0,7,c
  8136  004262  EF3D  F021         	goto	u2860
  8137  004266  5044               	movf	(___fldiv@new_exp+1)^0,w,c
  8138  004268  E106               	bnz	u2861
  8139  00426A  0443               	decf	___fldiv@new_exp^0,w,c
  8140  00426C  B0D8               	btfsc	status,0,c
  8141  00426E  EF3B  F021         	goto	u2861
  8142  004272  EF3D  F021         	goto	u2860
  8143  004276                     u2861:
  8144  004276  EF4B  F021         	goto	l2762
  8145  00427A                     u2860:
  8146  00427A  0E00               	movlw	0
  8147  00427C  6E44               	movwf	(___fldiv@new_exp+1)^0,c
  8148  00427E  0E00               	movlw	0
  8149  004280  6E43               	movwf	___fldiv@new_exp^0,c
  8150  004282  0E00               	movlw	0
  8151  004284  6E32               	movwf	___fldiv@b^0,c
  8152  004286  0E00               	movlw	0
  8153  004288  6E33               	movwf	(___fldiv@b+1)^0,c
  8154  00428A  0E00               	movlw	0
  8155  00428C  6E34               	movwf	(___fldiv@b+2)^0,c
  8156  00428E  0E00               	movlw	0
  8157  004290  6E35               	movwf	(___fldiv@b+3)^0,c
  8158  004292  0E00               	movlw	0
  8159  004294  6E42               	movwf	___fldiv@sign^0,c
  8160  004296                     l2762:
  8161  004296  C043  F049         	movff	___fldiv@new_exp,___fldiv@bexp
  8162  00429A  A049               	btfss	___fldiv@bexp^0,0,c
  8163  00429C  EF52  F021         	goto	u2871
  8164  0042A0  EF54  F021         	goto	u2870
  8165  0042A4                     u2871:
  8166  0042A4  EF57  F021         	goto	l2768
  8167  0042A8                     u2870:
  8168  0042A8  8E34               	bsf	(___fldiv@b+2)^0,7,c
  8169  0042AA  EF58  F021         	goto	l2770
  8170  0042AE                     l2768:
  8171  0042AE  9E34               	bcf	(___fldiv@b+2)^0,7,c
  8172  0042B0                     l2770:
  8173  0042B0  90D8               	bcf	status,0,c
  8174  0042B2  3049               	rrcf	___fldiv@bexp^0,w,c
  8175  0042B4  6E35               	movwf	(___fldiv@b+3)^0,c
  8176  0042B6  EF0E  F020         	goto	l2684
  8177  0042BA                     l642:
  8178  0042BA  0012               	return		;funcret
  8179  0042BC                     __end_of___fldiv:
  8180                           	callstack 0
  8181                           
  8182 ;; *************** function ___fltol *****************
  8183 ;; Defined at:
  8184 ;;		line 43 in file "D:\MPLABxIDE\pic\sources\c99\common\fltol.c"
  8185 ;; Parameters:    Size  Location     Type
  8186 ;;  f1              4   44[BANK0 ] unsigned char 
  8187 ;; Auto vars:     Size  Location     Type
  8188 ;;  exp1            1   88[COMRAM] unsigned char 
  8189 ;;  sign1           1   87[COMRAM] unsigned char 
  8190 ;; Return value:  Size  Location     Type
  8191 ;;                  4   44[BANK0 ] long 
  8192 ;; Registers used:
  8193 ;;		wreg, status,2, status,0
  8194 ;; Tracked objects:
  8195 ;;		On entry : 0/0
  8196 ;;		On exit  : 0/0
  8197 ;;		Unchanged: 0/0
  8198 ;; Data sizes:     COMRAM   BANK0   BANK1   BANK2   BANK3   BANK4   BANK5   BANK6   BANK7
  8199 ;;      Params:         0       4       0       0       0       0       0       0       0
  8200 ;;      Locals:         2       0       0       0       0       0       0       0       0
  8201 ;;      Temps:          4       0       0       0       0       0       0       0       0
  8202 ;;      Totals:         6       4       0       0       0       0       0       0       0
  8203 ;;Total ram usage:       10 bytes
  8204 ;; Hardware stack levels used: 1
  8205 ;; This function calls:
  8206 ;;		Nothing
  8207 ;; This function is called by:
  8208 ;;		_rndNumGen
  8209 ;; This function uses a non-reentrant model
  8210 ;;
  8211                           
  8212                           	psect	text16
  8213  004866                     __ptext16:
  8214                           	callstack 0
  8215  004866                     ___fltol:
  8216                           	callstack 29
  8217  004866  0100               	movlb	0	; () banked
  8218  004868  358E               	rlcf	(___fltol@f1+2)& (0+255),w,b
  8219  00486A  358F               	rlcf	(___fltol@f1+3)& (0+255),w,b
  8220  00486C  6E59               	movwf	___fltol@exp1^0,c
  8221  00486E  5059               	movf	___fltol@exp1^0,w,c
  8222  004870  A4D8               	btfss	status,2,c
  8223  004872  EF3D  F024         	goto	u3781
  8224  004876  EF3F  F024         	goto	u3780
  8225  00487A                     u3781:
  8226  00487A  EF49  F024         	goto	l3428
  8227  00487E                     u3780:
  8228  00487E                     l3424:
  8229                           
  8230                           ; BSR set to: 0
  8231  00487E  0E00               	movlw	0
  8232  004880  6F8C               	movwf	?___fltol& (0+255),b
  8233  004882  0E00               	movlw	0
  8234  004884  6F8D               	movwf	(?___fltol+1)& (0+255),b
  8235  004886  0E00               	movlw	0
  8236  004888  6F8E               	movwf	(?___fltol+2)& (0+255),b
  8237  00488A  0E00               	movlw	0
  8238  00488C  6F8F               	movwf	(?___fltol+3)& (0+255),b
  8239  00488E  EFB6  F024         	goto	l357
  8240  004892                     l3428:
  8241                           
  8242                           ; BSR set to: 0
  8243  004892  C08C  F054         	movff	___fltol@f1,??___fltol
  8244  004896  C08D  F055         	movff	___fltol@f1+1,??___fltol+1
  8245  00489A  C08E  F056         	movff	___fltol@f1+2,??___fltol+2
  8246  00489E  C08F  F057         	movff	___fltol@f1+3,??___fltol+3
  8247  0048A2  0E20               	movlw	32
  8248  0048A4  EF59  F024         	goto	u3790
  8249  0048A8                     u3795:
  8250  0048A8  90D8               	bcf	status,0,c
  8251  0048AA  3257               	rrcf	(??___fltol+3)^0,f,c
  8252  0048AC  3256               	rrcf	(??___fltol+2)^0,f,c
  8253  0048AE  3255               	rrcf	(??___fltol+1)^0,f,c
  8254  0048B0  3254               	rrcf	??___fltol^0,f,c
  8255  0048B2                     u3790:
  8256  0048B2  2EE8               	decfsz	wreg,f,c
  8257  0048B4  EF54  F024         	goto	u3795
  8258  0048B8  5054               	movf	??___fltol^0,w,c
  8259  0048BA  6E58               	movwf	___fltol@sign1^0,c
  8260  0048BC                     
  8261                           ; BSR set to: 0
  8262  0048BC  8F8E               	bsf	(___fltol@f1+2)& (0+255),7,b
  8263  0048BE                     
  8264                           ; BSR set to: 0
  8265  0048BE  0EFF               	movlw	255
  8266  0048C0  178C               	andwf	___fltol@f1& (0+255),f,b
  8267  0048C2  0EFF               	movlw	255
  8268  0048C4  178D               	andwf	(___fltol@f1+1)& (0+255),f,b
  8269  0048C6  0EFF               	movlw	255
  8270  0048C8  178E               	andwf	(___fltol@f1+2)& (0+255),f,b
  8271  0048CA  0E00               	movlw	0
  8272  0048CC  178F               	andwf	(___fltol@f1+3)& (0+255),f,b
  8273  0048CE                     
  8274                           ; BSR set to: 0
  8275  0048CE  0E96               	movlw	150
  8276  0048D0  5E59               	subwf	___fltol@exp1^0,f,c
  8277  0048D2                     
  8278                           ; BSR set to: 0
  8279  0048D2  BE59               	btfsc	___fltol@exp1^0,7,c
  8280  0048D4  EF70  F024         	goto	u3800
  8281  0048D8  EF6E  F024         	goto	u3801
  8282  0048DC                     u3801:
  8283  0048DC  EF86  F024         	goto	l3448
  8284  0048E0                     u3800:
  8285  0048E0                     
  8286                           ; BSR set to: 0
  8287  0048E0  5059               	movf	___fltol@exp1^0,w,c
  8288  0048E2  0A80               	xorlw	128
  8289  0048E4  0F97               	addlw	151
  8290  0048E6  B0D8               	btfsc	status,0,c
  8291  0048E8  EF78  F024         	goto	u3811
  8292  0048EC  EF7A  F024         	goto	u3810
  8293  0048F0                     u3811:
  8294  0048F0  EF7C  F024         	goto	l3444
  8295  0048F4                     u3810:
  8296  0048F4  EF3F  F024         	goto	l3424
  8297  0048F8                     l3444:
  8298                           
  8299                           ; BSR set to: 0
  8300  0048F8  90D8               	bcf	status,0,c
  8301  0048FA  338F               	rrcf	(___fltol@f1+3)& (0+255),f,b
  8302  0048FC  338E               	rrcf	(___fltol@f1+2)& (0+255),f,b
  8303  0048FE  338D               	rrcf	(___fltol@f1+1)& (0+255),f,b
  8304  004900  338C               	rrcf	___fltol@f1& (0+255),f,b
  8305  004902                     
  8306                           ; BSR set to: 0
  8307  004902  3E59               	incfsz	___fltol@exp1^0,f,c
  8308  004904  EF7C  F024         	goto	l3444
  8309  004908  EF9E  F024         	goto	l3458
  8310  00490C                     l3448:
  8311                           
  8312                           ; BSR set to: 0
  8313  00490C  0E1F               	movlw	31
  8314  00490E  6459               	cpfsgt	___fltol@exp1^0,c
  8315  004910  EF8C  F024         	goto	u3821
  8316  004914  EF8E  F024         	goto	u3820
  8317  004918                     u3821:
  8318  004918  EF96  F024         	goto	l3456
  8319  00491C                     u3820:
  8320  00491C  EF3F  F024         	goto	l3424
  8321  004920                     l3454:
  8322                           
  8323                           ; BSR set to: 0
  8324  004920  90D8               	bcf	status,0,c
  8325  004922  378C               	rlcf	___fltol@f1& (0+255),f,b
  8326  004924  378D               	rlcf	(___fltol@f1+1)& (0+255),f,b
  8327  004926  378E               	rlcf	(___fltol@f1+2)& (0+255),f,b
  8328  004928  378F               	rlcf	(___fltol@f1+3)& (0+255),f,b
  8329  00492A  0659               	decf	___fltol@exp1^0,f,c
  8330  00492C                     l3456:
  8331                           
  8332                           ; BSR set to: 0
  8333  00492C  5059               	movf	___fltol@exp1^0,w,c
  8334  00492E  A4D8               	btfss	status,2,c
  8335  004930  EF9C  F024         	goto	u3831
  8336  004934  EF9E  F024         	goto	u3830
  8337  004938                     u3831:
  8338  004938  EF90  F024         	goto	l3454
  8339  00493C                     u3830:
  8340  00493C                     l3458:
  8341                           
  8342                           ; BSR set to: 0
  8343  00493C  5058               	movf	___fltol@sign1^0,w,c
  8344  00493E  B4D8               	btfsc	status,2,c
  8345  004940  EFA4  F024         	goto	u3841
  8346  004944  EFA6  F024         	goto	u3840
  8347  004948                     u3841:
  8348  004948  EFAE  F024         	goto	l3462
  8349  00494C                     u3840:
  8350  00494C                     
  8351                           ; BSR set to: 0
  8352  00494C  1F8F               	comf	(___fltol@f1+3)& (0+255),f,b
  8353  00494E  1F8E               	comf	(___fltol@f1+2)& (0+255),f,b
  8354  004950  1F8D               	comf	(___fltol@f1+1)& (0+255),f,b
  8355  004952  6D8C               	negf	___fltol@f1& (0+255),b
  8356  004954  0E00               	movlw	0
  8357  004956  238D               	addwfc	(___fltol@f1+1)& (0+255),f,b
  8358  004958  238E               	addwfc	(___fltol@f1+2)& (0+255),f,b
  8359  00495A  238F               	addwfc	(___fltol@f1+3)& (0+255),f,b
  8360  00495C                     l3462:
  8361                           
  8362                           ; BSR set to: 0
  8363  00495C  C08C  F08C         	movff	___fltol@f1,?___fltol
  8364  004960  C08D  F08D         	movff	___fltol@f1+1,?___fltol+1
  8365  004964  C08E  F08E         	movff	___fltol@f1+2,?___fltol+2
  8366  004968  C08F  F08F         	movff	___fltol@f1+3,?___fltol+3
  8367  00496C                     l357:
  8368                           
  8369                           ; BSR set to: 0
  8370  00496C  0012               	return		;funcret
  8371  00496E                     __end_of___fltol:
  8372                           	callstack 0
  8373                           
  8374 ;; *************** function _portsInit *****************
  8375 ;; Defined at:
  8376 ;;		line 44 in file "mainP5.c"
  8377 ;; Parameters:    Size  Location     Type
  8378 ;;		None
  8379 ;; Auto vars:     Size  Location     Type
  8380 ;;		None
  8381 ;; Return value:  Size  Location     Type
  8382 ;;                  1    wreg      void 
  8383 ;; Registers used:
  8384 ;;		wreg, status,2
  8385 ;; Tracked objects:
  8386 ;;		On entry : 0/0
  8387 ;;		On exit  : 0/0
  8388 ;;		Unchanged: 0/0
  8389 ;; Data sizes:     COMRAM   BANK0   BANK1   BANK2   BANK3   BANK4   BANK5   BANK6   BANK7
  8390 ;;      Params:         0       0       0       0       0       0       0       0       0
  8391 ;;      Locals:         0       0       0       0       0       0       0       0       0
  8392 ;;      Temps:          0       0       0       0       0       0       0       0       0
  8393 ;;      Totals:         0       0       0       0       0       0       0       0       0
  8394 ;;Total ram usage:        0 bytes
  8395 ;; Hardware stack levels used: 1
  8396 ;; This function calls:
  8397 ;;		Nothing
  8398 ;; This function is called by:
  8399 ;;		_main
  8400 ;; This function uses a non-reentrant model
  8401 ;;
  8402                           
  8403                           	psect	text17
  8404  004D54                     __ptext17:
  8405                           	callstack 0
  8406  004D54                     _portsInit:
  8407                           	callstack 30
  8408  004D54                     
  8409                           ;mainP5.c: 47:     TRISA = output;
  8410  004D54  0E00               	movlw	0
  8411  004D56  6E92               	movwf	146,c	;volatile
  8412                           
  8413                           ;mainP5.c: 48:     ANSELA = digital;
  8414  004D58  0E00               	movlw	0
  8415  004D5A  010F               	movlb	15	; () banked
  8416  004D5C  6F5B               	movwf	91,b	;volatile
  8417                           
  8418                           ;mainP5.c: 49:     PORTA = 0;
  8419  004D5E  0E00               	movlw	0
  8420  004D60  6E80               	movwf	128,c	;volatile
  8421  004D62                     
  8422                           ; BSR set to: 15
  8423                           ;mainP5.c: 51:     TRISB = input;
  8424  004D62  6893               	setf	147,c	;volatile
  8425                           
  8426                           ;mainP5.c: 52:     ANSELB = digital;
  8427  004D64  0E00               	movlw	0
  8428  004D66  6F5C               	movwf	92,b	;volatile
  8429  004D68                     
  8430                           ; BSR set to: 15
  8431  004D68  0012               	return		;funcret
  8432  004D6A                     __end_of_portsInit:
  8433                           	callstack 0
  8434                           
  8435 ;; *************** function _knightRider *****************
  8436 ;; Defined at:
  8437 ;;		line 55 in file "mainP5.c"
  8438 ;; Parameters:    Size  Location     Type
  8439 ;;		None
  8440 ;; Auto vars:     Size  Location     Type
  8441 ;;  i               1    5[COMRAM] unsigned char 
  8442 ;;  i               1    4[COMRAM] unsigned char 
  8443 ;;  i               1    3[COMRAM] unsigned char 
  8444 ;;  i               1    2[COMRAM] unsigned char 
  8445 ;; Return value:  Size  Location     Type
  8446 ;;                  1    wreg      void 
  8447 ;; Registers used:
  8448 ;;		wreg, status,2, status,0
  8449 ;; Tracked objects:
  8450 ;;		On entry : 0/0
  8451 ;;		On exit  : 0/0
  8452 ;;		Unchanged: 0/0
  8453 ;; Data sizes:     COMRAM   BANK0   BANK1   BANK2   BANK3   BANK4   BANK5   BANK6   BANK7
  8454 ;;      Params:         0       0       0       0       0       0       0       0       0
  8455 ;;      Locals:         4       0       0       0       0       0       0       0       0
  8456 ;;      Temps:          2       0       0       0       0       0       0       0       0
  8457 ;;      Totals:         6       0       0       0       0       0       0       0       0
  8458 ;;Total ram usage:        6 bytes
  8459 ;; Hardware stack levels used: 1
  8460 ;; This function calls:
  8461 ;;		Nothing
  8462 ;; This function is called by:
  8463 ;;		_main
  8464 ;; This function uses a non-reentrant model
  8465 ;;
  8466                           
  8467                           	psect	text18
  8468  0044F0                     __ptext18:
  8469                           	callstack 0
  8470  0044F0                     _knightRider:
  8471                           	callstack 30
  8472  0044F0                     
  8473                           ;mainP5.c: 57:     for(uint8_t i = 0; i<7; i++)
  8474  0044F0  0E00               	movlw	0
  8475  0044F2  6E03               	movwf	knightRider@i^0,c
  8476  0044F4                     l3488:
  8477                           
  8478                           ;mainP5.c: 58:   {;mainP5.c: 59:    PORTA |= (1<<i);
  8479  0044F4  C003  F001         	movff	knightRider@i,??_knightRider
  8480  0044F8  0E01               	movlw	1
  8481  0044FA  6E02               	movwf	(??_knightRider+1)^0,c
  8482  0044FC  2A01               	incf	??_knightRider^0,f,c
  8483  0044FE  EF83  F022         	goto	u3854
  8484  004502                     u3855:
  8485  004502  90D8               	bcf	status,0,c
  8486  004504  3602               	rlcf	(??_knightRider+1)^0,f,c
  8487  004506                     u3854:
  8488  004506  2E01               	decfsz	??_knightRider^0,f,c
  8489  004508  EF81  F022         	goto	u3855
  8490  00450C  5002               	movf	(??_knightRider+1)^0,w,c
  8491  00450E  1280               	iorwf	128,f,c	;volatile
  8492  004510                     
  8493                           ;mainP5.c: 60:    _delay((unsigned long)((20)*(1000000/4000.0)));
  8494  004510  0E07               	movlw	7
  8495  004512  6E01               	movwf	??_knightRider^0,c
  8496  004514  0E7D               	movlw	125
  8497  004516                     u4027:
  8498  004516  2EE8               	decfsz	wreg,f,c
  8499  004518  D7FE               	bra	u4027
  8500  00451A  2E01               	decfsz	??_knightRider^0,f,c
  8501  00451C  D7FC               	bra	u4027
  8502  00451E  F000               	nop	
  8503  004520                     
  8504                           ;mainP5.c: 61:    PORTA &= ~(1<<i);
  8505  004520  C003  F001         	movff	knightRider@i,??_knightRider
  8506  004524  0E01               	movlw	1
  8507  004526  6E02               	movwf	(??_knightRider+1)^0,c
  8508  004528  2A01               	incf	??_knightRider^0,f,c
  8509  00452A  EF99  F022         	goto	u3864
  8510  00452E                     u3865:
  8511  00452E  90D8               	bcf	status,0,c
  8512  004530  3602               	rlcf	(??_knightRider+1)^0,f,c
  8513  004532                     u3864:
  8514  004532  2E01               	decfsz	??_knightRider^0,f,c
  8515  004534  EF97  F022         	goto	u3865
  8516  004538  5002               	movf	(??_knightRider+1)^0,w,c
  8517  00453A  0AFF               	xorlw	255
  8518  00453C  1680               	andwf	128,f,c	;volatile
  8519                           
  8520                           ;mainP5.c: 62:    _delay((unsigned long)((20)*(1000000/4000.0)));
  8521  00453E  0E07               	movlw	7
  8522  004540  6E01               	movwf	??_knightRider^0,c
  8523  004542  0E7D               	movlw	125
  8524  004544                     u4037:
  8525  004544  2EE8               	decfsz	wreg,f,c
  8526  004546  D7FE               	bra	u4037
  8527  004548  2E01               	decfsz	??_knightRider^0,f,c
  8528  00454A  D7FC               	bra	u4037
  8529  00454C  F000               	nop	
  8530  00454E                     
  8531                           ;mainP5.c: 63:   }
  8532  00454E  2A03               	incf	knightRider@i^0,f,c
  8533  004550  0E06               	movlw	6
  8534  004552  6403               	cpfsgt	knightRider@i^0,c
  8535  004554  EFAE  F022         	goto	u3871
  8536  004558  EFB0  F022         	goto	u3870
  8537  00455C                     u3871:
  8538  00455C  EF7A  F022         	goto	l3488
  8539  004560                     u3870:
  8540  004560                     
  8541                           ;mainP5.c: 65:     for(uint8_t i = 7; i>0; i--)
  8542  004560  0E07               	movlw	7
  8543  004562  6E04               	movwf	knightRider@i_78^0,c
  8544  004564                     l3500:
  8545                           
  8546                           ;mainP5.c: 66:   {;mainP5.c: 67:    PORTA |= (1<<i);
  8547  004564  C004  F001         	movff	knightRider@i_78,??_knightRider
  8548  004568  0E01               	movlw	1
  8549  00456A  6E02               	movwf	(??_knightRider+1)^0,c
  8550  00456C  2A01               	incf	??_knightRider^0,f,c
  8551  00456E  EFBB  F022         	goto	u3884
  8552  004572                     u3885:
  8553  004572  90D8               	bcf	status,0,c
  8554  004574  3602               	rlcf	(??_knightRider+1)^0,f,c
  8555  004576                     u3884:
  8556  004576  2E01               	decfsz	??_knightRider^0,f,c
  8557  004578  EFB9  F022         	goto	u3885
  8558  00457C  5002               	movf	(??_knightRider+1)^0,w,c
  8559  00457E  1280               	iorwf	128,f,c	;volatile
  8560  004580                     
  8561                           ;mainP5.c: 68:    _delay((unsigned long)((20)*(1000000/4000.0)));
  8562  004580  0E07               	movlw	7
  8563  004582  6E01               	movwf	??_knightRider^0,c
  8564  004584  0E7D               	movlw	125
  8565  004586                     u4047:
  8566  004586  2EE8               	decfsz	wreg,f,c
  8567  004588  D7FE               	bra	u4047
  8568  00458A  2E01               	decfsz	??_knightRider^0,f,c
  8569  00458C  D7FC               	bra	u4047
  8570  00458E  F000               	nop	
  8571  004590                     
  8572                           ;mainP5.c: 69:    PORTA &= ~(1<<i);
  8573  004590  C004  F001         	movff	knightRider@i_78,??_knightRider
  8574  004594  0E01               	movlw	1
  8575  004596  6E02               	movwf	(??_knightRider+1)^0,c
  8576  004598  2A01               	incf	??_knightRider^0,f,c
  8577  00459A  EFD1  F022         	goto	u3894
  8578  00459E                     u3895:
  8579  00459E  90D8               	bcf	status,0,c
  8580  0045A0  3602               	rlcf	(??_knightRider+1)^0,f,c
  8581  0045A2                     u3894:
  8582  0045A2  2E01               	decfsz	??_knightRider^0,f,c
  8583  0045A4  EFCF  F022         	goto	u3895
  8584  0045A8  5002               	movf	(??_knightRider+1)^0,w,c
  8585  0045AA  0AFF               	xorlw	255
  8586  0045AC  1680               	andwf	128,f,c	;volatile
  8587                           
  8588                           ;mainP5.c: 70:    _delay((unsigned long)((20)*(1000000/4000.0)));
  8589  0045AE  0E07               	movlw	7
  8590  0045B0  6E01               	movwf	??_knightRider^0,c
  8591  0045B2  0E7D               	movlw	125
  8592  0045B4                     u4057:
  8593  0045B4  2EE8               	decfsz	wreg,f,c
  8594  0045B6  D7FE               	bra	u4057
  8595  0045B8  2E01               	decfsz	??_knightRider^0,f,c
  8596  0045BA  D7FC               	bra	u4057
  8597  0045BC  F000               	nop	
  8598  0045BE                     
  8599                           ;mainP5.c: 71:   }
  8600  0045BE  0604               	decf	knightRider@i_78^0,f,c
  8601  0045C0  5004               	movf	knightRider@i_78^0,w,c
  8602  0045C2  A4D8               	btfss	status,2,c
  8603  0045C4  EFE6  F022         	goto	u3901
  8604  0045C8  EFE8  F022         	goto	u3900
  8605  0045CC                     u3901:
  8606  0045CC  EFB2  F022         	goto	l3500
  8607  0045D0                     u3900:
  8608  0045D0                     
  8609                           ;mainP5.c: 73:     for(uint8_t i = 0; i<7; i++)
  8610  0045D0  0E00               	movlw	0
  8611  0045D2  6E05               	movwf	knightRider@i_79^0,c
  8612  0045D4                     l3516:
  8613                           
  8614                           ;mainP5.c: 74:   {;mainP5.c: 75:    PORTA |= (1<<i);
  8615  0045D4  C005  F001         	movff	knightRider@i_79,??_knightRider
  8616  0045D8  0E01               	movlw	1
  8617  0045DA  6E02               	movwf	(??_knightRider+1)^0,c
  8618  0045DC  2A01               	incf	??_knightRider^0,f,c
  8619  0045DE  EFF3  F022         	goto	u3914
  8620  0045E2                     u3915:
  8621  0045E2  90D8               	bcf	status,0,c
  8622  0045E4  3602               	rlcf	(??_knightRider+1)^0,f,c
  8623  0045E6                     u3914:
  8624  0045E6  2E01               	decfsz	??_knightRider^0,f,c
  8625  0045E8  EFF1  F022         	goto	u3915
  8626  0045EC  5002               	movf	(??_knightRider+1)^0,w,c
  8627  0045EE  1280               	iorwf	128,f,c	;volatile
  8628  0045F0                     
  8629                           ;mainP5.c: 76:    _delay((unsigned long)((20)*(1000000/4000.0)));
  8630  0045F0  0E07               	movlw	7
  8631  0045F2  6E01               	movwf	??_knightRider^0,c
  8632  0045F4  0E7D               	movlw	125
  8633  0045F6                     u4067:
  8634  0045F6  2EE8               	decfsz	wreg,f,c
  8635  0045F8  D7FE               	bra	u4067
  8636  0045FA  2E01               	decfsz	??_knightRider^0,f,c
  8637  0045FC  D7FC               	bra	u4067
  8638  0045FE  F000               	nop	
  8639  004600                     
  8640                           ;mainP5.c: 77:    PORTA &= ~(1<<i);
  8641  004600  C005  F001         	movff	knightRider@i_79,??_knightRider
  8642  004604  0E01               	movlw	1
  8643  004606  6E02               	movwf	(??_knightRider+1)^0,c
  8644  004608  2A01               	incf	??_knightRider^0,f,c
  8645  00460A  EF09  F023         	goto	u3924
  8646  00460E                     u3925:
  8647  00460E  90D8               	bcf	status,0,c
  8648  004610  3602               	rlcf	(??_knightRider+1)^0,f,c
  8649  004612                     u3924:
  8650  004612  2E01               	decfsz	??_knightRider^0,f,c
  8651  004614  EF07  F023         	goto	u3925
  8652  004618  5002               	movf	(??_knightRider+1)^0,w,c
  8653  00461A  0AFF               	xorlw	255
  8654  00461C  1680               	andwf	128,f,c	;volatile
  8655                           
  8656                           ;mainP5.c: 78:    _delay((unsigned long)((20)*(1000000/4000.0)));
  8657  00461E  0E07               	movlw	7
  8658  004620  6E01               	movwf	??_knightRider^0,c
  8659  004622  0E7D               	movlw	125
  8660  004624                     u4077:
  8661  004624  2EE8               	decfsz	wreg,f,c
  8662  004626  D7FE               	bra	u4077
  8663  004628  2E01               	decfsz	??_knightRider^0,f,c
  8664  00462A  D7FC               	bra	u4077
  8665  00462C  F000               	nop	
  8666  00462E                     
  8667                           ;mainP5.c: 79:   }
  8668  00462E  2A05               	incf	knightRider@i_79^0,f,c
  8669  004630  0E06               	movlw	6
  8670  004632  6405               	cpfsgt	knightRider@i_79^0,c
  8671  004634  EF1E  F023         	goto	u3931
  8672  004638  EF20  F023         	goto	u3930
  8673  00463C                     u3931:
  8674  00463C  EFEA  F022         	goto	l3516
  8675  004640                     u3930:
  8676  004640                     
  8677                           ;mainP5.c: 81:     for(uint8_t i = 7; i>0; i--)
  8678  004640  0E07               	movlw	7
  8679  004642  6E06               	movwf	knightRider@i_80^0,c
  8680  004644                     l3528:
  8681                           
  8682                           ;mainP5.c: 82:   {;mainP5.c: 83:    PORTA |= (1<<i);
  8683  004644  C006  F001         	movff	knightRider@i_80,??_knightRider
  8684  004648  0E01               	movlw	1
  8685  00464A  6E02               	movwf	(??_knightRider+1)^0,c
  8686  00464C  2A01               	incf	??_knightRider^0,f,c
  8687  00464E  EF2B  F023         	goto	u3944
  8688  004652                     u3945:
  8689  004652  90D8               	bcf	status,0,c
  8690  004654  3602               	rlcf	(??_knightRider+1)^0,f,c
  8691  004656                     u3944:
  8692  004656  2E01               	decfsz	??_knightRider^0,f,c
  8693  004658  EF29  F023         	goto	u3945
  8694  00465C  5002               	movf	(??_knightRider+1)^0,w,c
  8695  00465E  1280               	iorwf	128,f,c	;volatile
  8696  004660                     
  8697                           ;mainP5.c: 84:    _delay((unsigned long)((20)*(1000000/4000.0)));
  8698  004660  0E07               	movlw	7
  8699  004662  6E01               	movwf	??_knightRider^0,c
  8700  004664  0E7D               	movlw	125
  8701  004666                     u4087:
  8702  004666  2EE8               	decfsz	wreg,f,c
  8703  004668  D7FE               	bra	u4087
  8704  00466A  2E01               	decfsz	??_knightRider^0,f,c
  8705  00466C  D7FC               	bra	u4087
  8706  00466E  F000               	nop	
  8707  004670                     
  8708                           ;mainP5.c: 85:    PORTA &= ~(1<<i);
  8709  004670  C006  F001         	movff	knightRider@i_80,??_knightRider
  8710  004674  0E01               	movlw	1
  8711  004676  6E02               	movwf	(??_knightRider+1)^0,c
  8712  004678  2A01               	incf	??_knightRider^0,f,c
  8713  00467A  EF41  F023         	goto	u3954
  8714  00467E                     u3955:
  8715  00467E  90D8               	bcf	status,0,c
  8716  004680  3602               	rlcf	(??_knightRider+1)^0,f,c
  8717  004682                     u3954:
  8718  004682  2E01               	decfsz	??_knightRider^0,f,c
  8719  004684  EF3F  F023         	goto	u3955
  8720  004688  5002               	movf	(??_knightRider+1)^0,w,c
  8721  00468A  0AFF               	xorlw	255
  8722  00468C  1680               	andwf	128,f,c	;volatile
  8723                           
  8724                           ;mainP5.c: 86:    _delay((unsigned long)((20)*(1000000/4000.0)));
  8725  00468E  0E07               	movlw	7
  8726  004690  6E01               	movwf	??_knightRider^0,c
  8727  004692  0E7D               	movlw	125
  8728  004694                     u4097:
  8729  004694  2EE8               	decfsz	wreg,f,c
  8730  004696  D7FE               	bra	u4097
  8731  004698  2E01               	decfsz	??_knightRider^0,f,c
  8732  00469A  D7FC               	bra	u4097
  8733  00469C  F000               	nop	
  8734  00469E                     
  8735                           ;mainP5.c: 87:   }
  8736  00469E  0606               	decf	knightRider@i_80^0,f,c
  8737  0046A0  5006               	movf	knightRider@i_80^0,w,c
  8738  0046A2  A4D8               	btfss	status,2,c
  8739  0046A4  EF56  F023         	goto	u3961
  8740  0046A8  EF58  F023         	goto	u3960
  8741  0046AC                     u3961:
  8742  0046AC  EF22  F023         	goto	l3528
  8743  0046B0                     u3960:
  8744  0046B0  0012               	return		;funcret
  8745  0046B2                     __end_of_knightRider:
  8746                           	callstack 0
  8747                           
  8748 ;; *************** function _checkButton *****************
  8749 ;; Defined at:
  8750 ;;		line 96 in file "mainP5.c"
  8751 ;; Parameters:    Size  Location     Type
  8752 ;;		None
  8753 ;; Auto vars:     Size  Location     Type
  8754 ;;  j               2    4[COMRAM] int 
  8755 ;; Return value:  Size  Location     Type
  8756 ;;                  2    0[COMRAM] int 
  8757 ;; Registers used:
  8758 ;;		wreg, status,2, status,0
  8759 ;; Tracked objects:
  8760 ;;		On entry : 0/0
  8761 ;;		On exit  : 0/0
  8762 ;;		Unchanged: 0/0
  8763 ;; Data sizes:     COMRAM   BANK0   BANK1   BANK2   BANK3   BANK4   BANK5   BANK6   BANK7
  8764 ;;      Params:         2       0       0       0       0       0       0       0       0
  8765 ;;      Locals:         2       0       0       0       0       0       0       0       0
  8766 ;;      Temps:          2       0       0       0       0       0       0       0       0
  8767 ;;      Totals:         6       0       0       0       0       0       0       0       0
  8768 ;;Total ram usage:        6 bytes
  8769 ;; Hardware stack levels used: 1
  8770 ;; This function calls:
  8771 ;;		Nothing
  8772 ;; This function is called by:
  8773 ;;		_main
  8774 ;; This function uses a non-reentrant model
  8775 ;;
  8776                           
  8777                           	psect	text19
  8778  004D3C                     __ptext19:
  8779                           	callstack 0
  8780  004D3C                     _checkButton:
  8781                           	callstack 30
  8782  004D3C                     
  8783                           ;mainP5.c: 97:     int j = ~PORTB;
  8784  004D3C  5081               	movf	129,w,c	;volatile
  8785  004D3E  6E03               	movwf	??_checkButton^0,c
  8786  004D40  6A04               	clrf	(??_checkButton+1)^0,c
  8787  004D42  1C03               	comf	??_checkButton^0,w,c
  8788  004D44  6E05               	movwf	checkButton@j^0,c
  8789  004D46  1C04               	comf	(??_checkButton+1)^0,w,c
  8790  004D48  6E06               	movwf	(checkButton@j+1)^0,c
  8791  004D4A                     
  8792                           ;mainP5.c: 98:     return j;
  8793  004D4A  C005  F001         	movff	checkButton@j,?_checkButton
  8794  004D4E  C006  F002         	movff	checkButton@j+1,?_checkButton+1
  8795  004D52  0012               	return		;funcret
  8796  004D54                     __end_of_checkButton:
  8797                           	callstack 0
  8798                           
  8799                           	psect	rparam
  8800  0000                     
  8801                           	psect	idloc
  8802                           
  8803                           ;Config register IDLOC0 @ 0x200000
  8804                           ;	unspecified, using default values
  8805  200000                     	org	2097152
  8806  200000  FF                 	db	255
  8807                           
  8808                           ;Config register IDLOC1 @ 0x200001
  8809                           ;	unspecified, using default values
  8810  200001                     	org	2097153
  8811  200001  FF                 	db	255
  8812                           
  8813                           ;Config register IDLOC2 @ 0x200002
  8814                           ;	unspecified, using default values
  8815  200002                     	org	2097154
  8816  200002  FF                 	db	255
  8817                           
  8818                           ;Config register IDLOC3 @ 0x200003
  8819                           ;	unspecified, using default values
  8820  200003                     	org	2097155
  8821  200003  FF                 	db	255
  8822                           
  8823                           ;Config register IDLOC4 @ 0x200004
  8824                           ;	unspecified, using default values
  8825  200004                     	org	2097156
  8826  200004  FF                 	db	255
  8827                           
  8828                           ;Config register IDLOC5 @ 0x200005
  8829                           ;	unspecified, using default values
  8830  200005                     	org	2097157
  8831  200005  FF                 	db	255
  8832                           
  8833                           ;Config register IDLOC6 @ 0x200006
  8834                           ;	unspecified, using default values
  8835  200006                     	org	2097158
  8836  200006  FF                 	db	255
  8837                           
  8838                           ;Config register IDLOC7 @ 0x200007
  8839                           ;	unspecified, using default values
  8840  200007                     	org	2097159
  8841  200007  FF                 	db	255
  8842                           
  8843                           	psect	config
  8844                           
  8845                           ;Config register CONFIG1L @ 0x300000
  8846                           ;	PLL Selection
  8847                           ;	PLLSEL = PLL4X, 4x clock multiplier
  8848                           ;	PLL Enable Configuration bit
  8849                           ;	CFGPLLEN = OFF, PLL Disabled (firmware controlled)
  8850                           ;	CPU System Clock Postscaler
  8851                           ;	CPUDIV = NOCLKDIV, CPU uses system clock (no divide)
  8852                           ;	Low Speed USB mode with 48 MHz system clock
  8853                           ;	LS48MHZ = SYS24X4, System clock at 24 MHz, USB clock divider is set to 4
  8854  300000                     	org	3145728
  8855  300000  00                 	db	0
  8856                           
  8857                           ;Config register CONFIG1H @ 0x300001
  8858                           ;	Oscillator Selection
  8859                           ;	FOSC = INTOSCIO, Internal oscillator
  8860                           ;	Primary Oscillator Shutdown
  8861                           ;	PCLKEN = ON, Primary oscillator enabled
  8862                           ;	Fail-Safe Clock Monitor
  8863                           ;	FCMEN = OFF, Fail-Safe Clock Monitor disabled
  8864                           ;	Internal/External Oscillator Switchover
  8865                           ;	IESO = OFF, Oscillator Switchover mode disabled
  8866  300001                     	org	3145729
  8867  300001  28                 	db	40
  8868                           
  8869                           ;Config register CONFIG2L @ 0x300002
  8870                           ;	Power-up Timer Enable
  8871                           ;	nPWRTEN = OFF, Power up timer disabled
  8872                           ;	Brown-out Reset Enable
  8873                           ;	BOREN = SBORDIS, BOR enabled in hardware (SBOREN is ignored)
  8874                           ;	Brown-out Reset Voltage
  8875                           ;	BORV = 190, BOR set to 1.9V nominal
  8876                           ;	Low-Power Brown-out Reset
  8877                           ;	nLPBOR = OFF, Low-Power Brown-out Reset disabled
  8878  300002                     	org	3145730
  8879  300002  5F                 	db	95
  8880                           
  8881                           ;Config register CONFIG2H @ 0x300003
  8882                           ;	Watchdog Timer Enable bits
  8883                           ;	WDTEN = OFF, WDT disabled in hardware (SWDTEN ignored)
  8884                           ;	Watchdog Timer Postscaler
  8885                           ;	WDTPS = 32768, 1:32768
  8886  300003                     	org	3145731
  8887  300003  3C                 	db	60
  8888                           
  8889                           ; Padding undefined space
  8890  300004                     	org	3145732
  8891  300004  FF                 	db	255
  8892                           
  8893                           ;Config register CONFIG3H @ 0x300005
  8894                           ;	CCP2 MUX bit
  8895                           ;	CCP2MX = RC1, CCP2 input/output is multiplexed with RC1
  8896                           ;	PORTB A/D Enable bit
  8897                           ;	PBADEN = ON, PORTB<5:0> pins are configured as analog input channels on Reset
  8898                           ;	Timer3 Clock Input MUX bit
  8899                           ;	T3CMX = RC0, T3CKI function is on RC0
  8900                           ;	SDO Output MUX bit
  8901                           ;	SDOMX = RB3, SDO function is on RB3
  8902                           ;	Master Clear Reset Pin Enable
  8903                           ;	MCLRE = ON, MCLR pin enabled; RE3 input disabled
  8904  300005                     	org	3145733
  8905  300005  D3                 	db	211
  8906                           
  8907                           ;Config register CONFIG4L @ 0x300006
  8908                           ;	Stack Full/Underflow Reset
  8909                           ;	STVREN = ON, Stack full/underflow will cause Reset
  8910                           ;	Single-Supply ICSP Enable bit
  8911                           ;	LVP = ON, Single-Supply ICSP enabled if MCLRE is also 1
  8912                           ;	Dedicated In-Circuit Debug/Programming Port Enable
  8913                           ;	ICPRT = OFF, ICPORT disabled
  8914                           ;	Extended Instruction Set Enable bit
  8915                           ;	XINST = OFF, Instruction set extension and Indexed Addressing mode disabled
  8916                           ;	Background Debugger Enable bit
  8917                           ;	DEBUG = 0x1, unprogrammed default
  8918  300006                     	org	3145734
  8919  300006  85                 	db	133
  8920                           
  8921                           ; Padding undefined space
  8922  300007                     	org	3145735
  8923  300007  FF                 	db	255
  8924                           
  8925                           ;Config register CONFIG5L @ 0x300008
  8926                           ;	Block 0 Code Protect
  8927                           ;	CP0 = OFF, Block 0 is not code-protected
  8928                           ;	Block 1 Code Protect
  8929                           ;	CP1 = OFF, Block 1 is not code-protected
  8930                           ;	Block 2 Code Protect
  8931                           ;	CP2 = OFF, Block 2 is not code-protected
  8932                           ;	Block 3 Code Protect
  8933                           ;	CP3 = OFF, Block 3 is not code-protected
  8934  300008                     	org	3145736
  8935  300008  0F                 	db	15
  8936                           
  8937                           ;Config register CONFIG5H @ 0x300009
  8938                           ;	Boot Block Code Protect
  8939                           ;	CPB = OFF, Boot block is not code-protected
  8940                           ;	Data EEPROM Code Protect
  8941                           ;	CPD = OFF, Data EEPROM is not code-protected
  8942  300009                     	org	3145737
  8943  300009  C0                 	db	192
  8944                           
  8945                           ;Config register CONFIG6L @ 0x30000A
  8946                           ;	Block 0 Write Protect
  8947                           ;	WRT0 = OFF, Block 0 (0800-1FFFh) is not write-protected
  8948                           ;	Block 1 Write Protect
  8949                           ;	WRT1 = OFF, Block 1 (2000-3FFFh) is not write-protected
  8950                           ;	Block 2 Write Protect
  8951                           ;	WRT2 = OFF, Block 2 (04000-5FFFh) is not write-protected
  8952                           ;	Block 3 Write Protect
  8953                           ;	WRT3 = OFF, Block 3 (06000-7FFFh) is not write-protected
  8954  30000A                     	org	3145738
  8955  30000A  0F                 	db	15
  8956                           
  8957                           ;Config register CONFIG6H @ 0x30000B
  8958                           ;	Configuration Registers Write Protect
  8959                           ;	WRTC = OFF, Configuration registers (300000-3000FFh) are not write-protected
  8960                           ;	Boot Block Write Protect
  8961                           ;	WRTB = OFF, Boot block (0000-7FFh) is not write-protected
  8962                           ;	Data EEPROM Write Protect
  8963                           ;	WRTD = OFF, Data EEPROM is not write-protected
  8964  30000B                     	org	3145739
  8965  30000B  E0                 	db	224
  8966                           
  8967                           ;Config register CONFIG7L @ 0x30000C
  8968                           ;	Block 0 Table Read Protect
  8969                           ;	EBTR0 = OFF, Block 0 is not protected from table reads executed in other blocks
  8970                           ;	Block 1 Table Read Protect
  8971                           ;	EBTR1 = OFF, Block 1 is not protected from table reads executed in other blocks
  8972                           ;	Block 2 Table Read Protect
  8973                           ;	EBTR2 = OFF, Block 2 is not protected from table reads executed in other blocks
  8974                           ;	Block 3 Table Read Protect
  8975                           ;	EBTR3 = OFF, Block 3 is not protected from table reads executed in other blocks
  8976  30000C                     	org	3145740
  8977  30000C  0F                 	db	15
  8978                           
  8979                           ;Config register CONFIG7H @ 0x30000D
  8980                           ;	Boot Block Table Read Protect
  8981                           ;	EBTRB = OFF, Boot block is not protected from table reads executed in other blocks
  8982  30000D                     	org	3145741
  8983  30000D  40                 	db	64
  8984                           tosu	equ	0xFFF
  8985                           tosh	equ	0xFFE
  8986                           tosl	equ	0xFFD
  8987                           stkptr	equ	0xFFC
  8988                           pclatu	equ	0xFFB
  8989                           pclath	equ	0xFFA
  8990                           pcl	equ	0xFF9
  8991                           tblptru	equ	0xFF8
  8992                           tblptrh	equ	0xFF7
  8993                           tblptrl	equ	0xFF6
  8994                           tablat	equ	0xFF5
  8995                           prodh	equ	0xFF4
  8996                           prodl	equ	0xFF3
  8997                           indf0	equ	0xFEF
  8998                           postinc0	equ	0xFEE
  8999                           postdec0	equ	0xFED
  9000                           preinc0	equ	0xFEC
  9001                           plusw0	equ	0xFEB
  9002                           fsr0h	equ	0xFEA
  9003                           fsr0l	equ	0xFE9
  9004                           wreg	equ	0xFE8
  9005                           indf1	equ	0xFE7
  9006                           postinc1	equ	0xFE6
  9007                           postdec1	equ	0xFE5
  9008                           preinc1	equ	0xFE4
  9009                           plusw1	equ	0xFE3
  9010                           fsr1h	equ	0xFE2
  9011                           fsr1l	equ	0xFE1
  9012                           bsr	equ	0xFE0
  9013                           indf2	equ	0xFDF
  9014                           postinc2	equ	0xFDE
  9015                           postdec2	equ	0xFDD
  9016                           preinc2	equ	0xFDC
  9017                           plusw2	equ	0xFDB
  9018                           fsr2h	equ	0xFDA
  9019                           fsr2l	equ	0xFD9
  9020                           status	equ	0xFD8

Data Sizes:
    Strings     1
    Constant    124
    Data        0
    BSS         10
    Persistent  0
    Stack       0

Auto Spaces:
    Space          Size  Autos    Used
    COMRAM           95     95      95
    BANK0           160     50      60
    BANK1           256    188     188
    BANK2           256      0       0
    BANK3           256      0       0
    BANK4           256      0       0
    BANK5           256      0       0
    BANK6           256      0       0
    BANK7           256      0       0

Pointer List with Targets:

    nanf@s	PTR const unsigned char  size(2) Largest target is 1
		 -> STR_1(CODE[1]), 


Critical Paths under _main in COMRAM

    _main->_rndNumGen
    _rndNumGen->___fltol
    _rand->___lmul
    _powf->___fldiv
    _sqrtf->___flge
    ___flge->___flsub
    _scalbnf->___flmul
    ___flmul->___fladd
    ___flsub->___flmul
    ___fldiv->___flsub
    ___fltol->_powf

Critical Paths under _main in BANK0

    _rndNumGen->___fltol
    _powf->_sqrtf
    ___fltol->_powf

Critical Paths under _main in BANK1

    _rndNumGen->_powf
    ___fltol->_powf

Critical Paths under _main in BANK2

    None.

Critical Paths under _main in BANK3

    None.

Critical Paths under _main in BANK4

    None.

Critical Paths under _main in BANK5

    None.

Critical Paths under _main in BANK6

    None.

Critical Paths under _main in BANK7

    None.

Call Graph Tables:

 ---------------------------------------------------------------------------------
 (Depth) Function   	        Calls       Base Space   Used Autos Params    Refs
 ---------------------------------------------------------------------------------
 (0) _main                                                 2     2      0   77353
                                             48 BANK0      2     2      0
                        _checkButton
                        _knightRider
                          _portsInit
                          _rndNumGen
 ---------------------------------------------------------------------------------
 (1) _rndNumGen                                            6     6      0   76924
                                             89 COMRAM     6     6      0
                            ___fltol
                           ___xxtofl
                               _powf
                               _rand
 ---------------------------------------------------------------------------------
 (2) _rand                                                 6     4      2     370
                                             12 COMRAM     6     4      2
                             ___lmul
 ---------------------------------------------------------------------------------
 (3) ___lmul                                              12     4      8     370
                                              0 COMRAM    12     4      8
 ---------------------------------------------------------------------------------
 (2) _powf                                               205   197      8   75706
                                             74 COMRAM     9     9      0
                                             36 BANK0      8     0      8
                                              0 BANK1    188   188      0
                            ___fladd
                            ___fldiv
                             ___flge
                            ___flmul
                            ___flneg
                            ___flsub
                           ___xxtofl
                              _fabsf
                            _scalbnf
                              _sqrtf
 ---------------------------------------------------------------------------------
 (3) _sqrtf                                               49    45      4   20885
                                             61 COMRAM     9     5      4
                                              0 BANK0     36    36      0
                            ___fladd
                             ___flge
                            ___flmul
                               _nanf
 ---------------------------------------------------------------------------------
 (4) _nanf                                                 8     4      4      99
                                              0 COMRAM     8     4      4
 ---------------------------------------------------------------------------------
 (4) ___flge                                              12     4      8     790
                                             49 COMRAM    12     4      8
                            ___fladd (ARG)
                            ___flsub (ARG)
 ---------------------------------------------------------------------------------
 (3) _scalbnf                                             18    12      6   12119
                                             41 COMRAM    18    12      6
                            ___flmul
 ---------------------------------------------------------------------------------
 (4) ___flmul                                             25    17      8   11624
                                             16 COMRAM    25    17      8
                            ___fladd (ARG)
 ---------------------------------------------------------------------------------
 (3) _fabsf                                                8     4      4     123
                                              0 COMRAM     8     4      4
 ---------------------------------------------------------------------------------
 (3) ___xxtofl                                            14    10      4     474
                                              0 COMRAM    14    10      4
 ---------------------------------------------------------------------------------
 (3) ___flsub                                              8     0      8   12769
                                             41 COMRAM     8     0      8
                            ___fladd
                            ___flmul (ARG)
 ---------------------------------------------------------------------------------
 (4) ___fladd                                             16     8      8    7430
                                              0 COMRAM    16     8      8
 ---------------------------------------------------------------------------------
 (3) ___flneg                                              4     0      4     197
                                              0 COMRAM     4     0      4
 ---------------------------------------------------------------------------------
 (3) ___fldiv                                             25    17      8    2159
                                             49 COMRAM    25    17      8
                            ___fladd (ARG)
                            ___flmul (ARG)
                            ___flsub (ARG)
 ---------------------------------------------------------------------------------
 (2) ___fltol                                             10     6      4     305
                                             83 COMRAM     6     6      0
                                             44 BANK0      4     0      4
                           ___xxtofl (ARG)
                               _powf (ARG)
 ---------------------------------------------------------------------------------
 (1) _portsInit                                            0     0      0       0
 ---------------------------------------------------------------------------------
 (1) _knightRider                                          6     6      0     360
                                              0 COMRAM     6     6      0
 ---------------------------------------------------------------------------------
 (1) _checkButton                                          6     4      2      23
                                              0 COMRAM     6     4      2
 ---------------------------------------------------------------------------------
 Estimated maximum stack depth 4
 ---------------------------------------------------------------------------------

 Call Graph Graphs:

 _main (ROOT)
   _checkButton
   _knightRider
   _portsInit
   _rndNumGen
     ___fltol
       ___xxtofl (ARG)
       _powf (ARG)
         ___fladd
         ___fldiv
           ___fladd (ARG)
           ___flmul (ARG)
             ___fladd (ARG)
           ___flsub (ARG)
             ___fladd
             ___flmul (ARG)
         ___flge
           ___fladd (ARG)
           ___flsub (ARG)
         ___flmul
         ___flneg
         ___flsub
         ___xxtofl
         _fabsf
         _scalbnf
           ___flmul
         _sqrtf
           ___fladd
           ___flge
           ___flmul
           _nanf
     ___xxtofl
     _powf
     _rand
       ___lmul

 Address spaces:
Name               Size   Autos  Total    Cost      Usage
BIGRAM             7FF      0       0      25        0.0%
EEDATA             100      0       0       0        0.0%
BITBANK7           100      0       0      18        0.0%
BANK7              100      0       0      19        0.0%
BITBANK6           100      0       0      16        0.0%
BANK6              100      0       0      17        0.0%
BITBANK5           100      0       0      14        0.0%
BANK5              100      0       0      15        0.0%
BITBANK4           100      0       0      12        0.0%
BANK4              100      0       0      13        0.0%
BITBANK3           100      0       0      10        0.0%
BANK3              100      0       0      11        0.0%
BITBANK2           100      0       0       8        0.0%
BANK2              100      0       0       9        0.0%
BITBANK1           100      0       0       6        0.0%
BANK1              100     BC      BC       7       73.4%
BITBANK0            A0      0       0       4        0.0%
BANK0               A0     32      3C       5       37.5%
BITBIGSFRhh         6C      0       0      20        0.0%
BITCOMRAM           5F      0       0       0        0.0%
COMRAM              5F     5F      5F       1      100.0%
BITBIGSFRlh         23      0       0      22        0.0%
BITBIGSFRhl         10      0       0      21        0.0%
BITBIGSFRll          8      0       0      23        0.0%
BIGSFR               0      0       0     200        0.0%
BITSFR_1             0      0       0     200        0.0%
SFR_1                0      0       0     200        0.0%
BITSFR               0      0       0     200        0.0%
SFR                  0      0       0     200        0.0%
STACK                0      0       0       2        0.0%
NULL                 0      0       0       0        0.0%
ABS                  0      0     157      24        0.0%
DATA                 0      0     157       3        0.0%
CODE                 0      0       0       0        0.0%


Microchip Technology PIC18 Macro Assembler V2.36 build 20220127204148 
Symbol Table                                                                                   Sun Apr 10 14:50:07 2022

           ___fldiv@aexp 004A             ___fldiv@bexp 0049             ___fldiv@sign 0042  
                     _L1 0859                       _L2 0855                       _L3 0851  
                     l40 4D68                       _L4 084D                       _L5 0849  
                     _L6 0845                       l51 46B0                       _P1 0841  
                     l54 4B74                       _P2 083D                       l71 4C3C  
                     _P3 0839                       l72 4C4C                       _P4 0835  
                     l57 4D52                       _P5 0831                       _bp 0869  
                     _cp 081D                      l330 4A70                      l325 4A2A  
                    l334 4CCA                      l357 496C                      l605 3940  
                    l614 3A10                      l630 4C92                      l615 39FE  
                    l801 3176                      l642 42BA                      l722 47A0  
                    l715 4708                      l644 411A                      l653 4160  
                    l590 37DA                      l718 4864                      l902 29A8  
                    l806 0B40                      l655 41D8                      l647 40DE  
                    l903 2A10                      l656 41C6                      l816 0BD4  
                    l729 47FC                      l921 4CFE                      l681 3DB2  
                    l913 3122                      l674 3BBC                      l834 0DBC  
                    l826 0C96                      l691 3EE2                      l683 3E2A  
                    l588 3826                      l684 3E18                      l597 3AF6  
                    l589 3814                      l678 3F20                      l951 3636  
                    l929 4BE2                      l962 3498                      l939 44EE  
                    l955 3376                      l972 4D20                      l964 35A0  
                    l796 0880                      l798 08A0                      l959 33D4  
                    _lg2 082D                      _ovt 0821                      wreg 000FE8  
           ___flmul@aexp 0022             ___flmul@bexp 0023             ___flmul@sign 001D  
           ___flmul@temp 0028             ___flmul@prod 0024             ___fltol@exp1 0059  
                   l3000 0A36                     l3002 0B10                     l2300 36CE  
                   l3100 10E0                     l3020 0BE8                     l3012 0B8E  
                   l3004 0B5C                     l2302 36DE                     l2310 3708  
                   l3110 11FA                     l3030 0C50                     l3022 0BF6  
                   l3014 0BB0                     l3006 0B78                     l2400 3910  
                   l2320 3740                     l2312 3718                     l2304 36EE  
                   l3200 1994                     l3120 1326                     l3104 114C  
                   l3040 0CFA                     l3032 0C5E                     l3024 0C1E  
                   l3016 0BBE                     l2402 3920                     l2330 3754  
                   l2322 3744                     l2314 372A                     l2306 36FE  
                   l3210 1AE0                     l3202 19C8                     l3130 14A6  
                   l3122 137E                     l3106 1170                     l3114 1266  
                   l3050 0D6C                     l3042 0D12                     l3034 0CAA  
                   l2420 39A2                     l2412 397A                     l2404 3930  
                   l2340 3768                     l2332 3758                     l2324 3748  
                   l2316 3738                     l2308 3700                     l2500 3B96  
                   l3300 23FC                     l3220 1C98                     l3212 1B38  
                   l3204 1A20                     l3132 14B6                     l3124 13B2  
                   l3116 129A                     l3108 118E                     l3140 154C  
                   l3060 0E0E                     l3052 0D8A                     l3044 0D20  
                   l3036 0CC2                     l3028 0C34                     l2422 39AA  
                   l2414 3984                     l2406 3956                     l2430 39CE  
                   l2350 377C                     l2342 376C                     l2334 375C  
                   l2326 374C                     l2318 373C                     l2270 3638  
                   l2502 3BA6                     l3310 250A                     l3302 2416  
                   l3230 1DC0                     l3222 1CCC                     l3214 1B90  
                   l3206 1A78                     l3150 15CE                     l3142 155C  
                   l3134 14D0                     l3126 13E6                     l3118 12F2  
                   l3070 0F04                     l3062 0E1E                     l3054 0DA0  
                   l2440 3A20                     l2432 39D2                     l2424 39AE  
                   l2416 3992                     l2408 3966                     l2360 37F4  
                   l2352 37A6                     l2344 3770                     l2336 3760  
                   l2328 3750                     l2280 3674                     l2272 3644  
                   l2520 3C28                     l2512 3BF0                     l2504 3BAC  
                   l3400 2F5E                     l3312 253E                     l3304 2426  
                   l3240 1E62                     l3232 1DF4                     l3224 1D00  
                   l3216 1BE8                     l3208 1AAC                     l3160 168A  
                   l3144 1578                     l3152 15DE                     l3136 14E0  
                   l3128 1496                     l3080 0F5A                     l3064 0E64  
                   l3072 0F28                     l3056 0DCC                     l3048 0D48  
                   l2450 3A86                     l2442 3A2C                     l2434 39E0  
                   l2426 39BE                     l2418 3994                     l2370 3834  
                   l2362 37F8                     l2354 37C2                     l2346 3774  
                   l2338 3764                     l2290 36A4                     l2282 3684  
                   l2274 3652                     l2530 3C72                     l2522 3C40  
                   l2514 3BFC                     l2506 3BCC                     l2610 49EA  
                   l2602 496E                     l3410 3062                     l3402 2FB6  
                   l3314 254E                     l3306 247E                     l3250 1F42  
                   l3242 1E72                     l3234 1E28                     l3226 1D58  
                   l3218 1C40                     l3170 16F2                     l3162 169E  
                   l3154 1636                     l3146 15AC                     l3138 1514  
                   l3090 1010                     l3082 0F70                     l3066 0E6E  
                   l3058 0DDA                     l3500 4564                     l2700 4072  
                   l2460 3ACE                     l2452 3A96                     l2444 3A3A  
                   l2436 39F6                     l2428 39C0                     l2380 3876  
                   l2372 3844                     l2364 3806                     l2356 37D2  
                   l2348 3778                     l2292 36B6                     l2284 3686  
                   l2276 3654                     l2540 3CC8                     l2532 3C82  
                   l2524 3C4C                     l2516 3C06                     l2508 3BDC  
                   l2620 4A6E                     l2612 49F8                     l2604 499C  
                   l3412 3072                     l3404 2FEA                     l3340 2792  
                   l3332 26EC                     l3324 25EE                     l3316 255E  
                   l3308 24D6                     l3260 202C                     l3252 1FBE  
                   l3244 1EA6                     l3236 1E38                     l3228 1D8C  
                   l3180 17FE                     l3164 16C2                     l3172 1702  
                   l3156 164E                     l3148 15BE                     l3084 0F7A  
                   l3092 1020                     l3068 0EEE                     l3076 0F3C  
                   l3510 45D0                     l3502 4580                     l3430 48BC  
                   l3422 4866                     l2710 40BA                     l2702 4082  
                   l2462 3AD0                     l2454 3AB6                     l2446 3A74  
                   l2390 38A4                     l2382 3884                     l2366 3808  
                   l2358 37E8                     l2294 36B8                     l2278 3664  
                   l2286 368E                     l2550 3D6C                     l2542 3CE4  
                   l2534 3C8E                     l2526 3C58                     l2518 3C1C  
                   l2614 4A0A                     l2606 49AC                     l3414 30A6  
                   l3406 301E                     l3350 28D2                     l3342 27AE  
                   l3334 2726                     l3326 2606                     l3318 2582  
                   l3270 2154                     l3262 203C                     l3254 1FF2  
                   l3246 1EDA                     l3238 1E48                     l3190 187C  
                   l3182 1832                     l3174 1712                     l3166 16D6  
                   l3158 1666                     l3094 1042                     l3078 0F4C  
                   l2630 4BE4                     l3520 4600                     l3504 4590  
                   l3432 48BE                     l3424 487E                     l2720 4108  
                   l2712 40CE                     l2704 4092                     l2640 3F22  
                   l2464 3AD6                     l2456 3ABA                     l2448 3A76  
                   l2392 38AE                     l2384 3890                     l2376 3858  
                   l2368 3812                     l2296 36BE                     l2288 369E  
                   l2800 472E                     l2560 3DC2                     l2552 3D7A  
                   l2544 3CF0                     l2536 3C9E                     l2528 3C66  
                   l2480 3B24                     l2472 3AF8                     l2616 4A18  
                   l2608 49DA                     l2624 4D00                     l3416 30F2  
                   l3408 3052                     l3360 2A90                     l3352 28E2  
                   l3344 2804                     l3328 2680                     l3280 229A  
                   l3272 21B0                     l3264 2070                     l3256 2002  
                   l3248 1F0E                     l3192 188C                     l3184 1842  
                   l3176 1722                     l3168 16E6                     l3096 1066  
                   l3088 0FFA                     l2632 4BF4                     l3530 4660  
                   l3522 462E                     l3506 45BE                     l3434 48CE  
                   l2730 4150                     l2722 4118                     l2714 40DC  
                   l2706 40A2                     l2650 3F5E                     l2642 3F2E  
                   l2466 3AE4                     l2458 3AC8                     l2386 3894  
                   l2378 3868                     l2394 38B4                     l2298 36CC  
                   l2810 4788                     l2562 3DD0                     l2554 3D98  
                   l2546 3D0C                     l2538 3CB8                     l2490 3B60  
                   l2482 3B34                     l2474 3B04                     l2618 4A68  
                   l2626 4D10                     l3418 3142                     l3370 2B32  
                   l3354 2904                     l3362 2AC4                     l3290 2318  
                   l3282 22AA                     l3274 21D6                     l3266 20A4  
                   l3258 2012                     l3194 18D6                     l3186 1852  
                   l3178 177E                     l3098 1074                     l2634 4C02  
                   l3532 4670                     l3524 4640                     l3516 45D4  
                   l3508 45C0                     l3460 494C                     l3444 48F8  
                   l3436 48D2                     l3428 4892                     l2740 4190  
                   l2732 415E                     l2724 412A                     l2716 40E8  
                   l2708 40AA                     l2660 3F8E                     l2652 3F6E  
                   l2644 3F3C                     l2468 3AE6                     l2396 38DA  
                   l2388 38A2                     l2820 47EC                     l2812 478A  
                   l2804 4742                     l2572 3E3A                     l2580 3E82  
                   l2564 3DD4                     l2556 3DA2                     l2548 3D36  
                   l2492 3B66                     l2484 3B44                     l2476 3B12  
                   l2900 3532                     l3380 2C5A                     l3372 2B42  
                   l3364 2AF8                     l3356 2A00                     l3348 2870  
                   l3292 2374                     l3284 22BA                     l3276 220A  
                   l3268 20D8                     l3196 1928                     l3188 1862  
                   l2636 4C12                     l3540 4A76                     l3534 469E  
                   l3518 45F0                     l3462 495C                     l3454 4920  
                   l3446 4902                     l3438 48E0                     l2750 4202  
                   l2742 41BE                     l2726 4140                     l2734 4170  
                   l2718 4106                     l2670 3FC4                     l2662 3F94  
                   l2654 3F70                     l2646 3F3E                     l2398 390E  
                   l2830 4844                     l2822 480A                     l2814 4796  
                   l2806 474A                     l2590 3EF6                     l2582 3E9C  
                   l2574 3E46                     l2566 3DE2                     l2558 3DB0  
                   l2494 3B74                     l2486 3B4A                     l2478 3B14  
                   l2910 3626                     l2902 3564                     l3390 2D82  
                   l3382 2C8E                     l3374 2B76                     l3366 2B08  
                   l3358 2A80                     l3294 23A8                     l3286 22D4  
                   l3278 2266                     l3198 1938                     l2638 4C1C  
                   l3470 4AFA                     l3550 4AAA                     l3542 4A7A  
                   l3536 46A0                     l3528 4644                     l3456 492C  
                   l3448 490C                     l2760 427A                     l2752 422C  
                   l2736 417E                     l2728 4146                     l2680 4004  
                   l2672 3FD4                     l2664 3FA2                     l2648 3F4E  
                   l2656 3F78                     l2832 4852                     l2824 480C  
                   l2816 47D2                     l2808 4756                     l2592 3F04  
                   l2584 3EB0                     l2576 3E54                     l2568 3E10  
                   l2496 3B76                     l2488 3B5A                     l2904 3576  
                   l2840 3178                     l3392 2DDA                     l3384 2CC2  
                   l3376 2BAA                     l3368 2B18                     l3288 22E4  
                   l3296 23DC                     l3472 4B2E                     l3552 4AAE  
                   l3544 4A8A                     l3490 4510                     l3482 44F0  
                   l3466 4D54                     l3458 493C                     l2770 42B0  
                   l2762 4296                     l2746 41E8                     l2754 4230  
                   l2738 4182                     l2682 4014                     l2690 4034  
                   l2674 3FD6                     l2666 3FA4                     l2658 3F88  
                   l2834 4854                     l2826 4810                     l2818 47DE  
                   l2914 4CCC                     l2594 3F06                     l2586 3ECA  
                   l2578 3E7E                     l2498 3B86                     l2930 4324  
                   l2922 42BC                     l2906 3606                     l2850 322A  
                   l2842 3188                     l3394 2E32                     l3386 2CF6  
                   l3378 2C02                     l3298 23EC                     l3474 4B70  
                   l3554 4AC4                     l3546 4A94                     l3538 4A72  
                   l3476 4D3C                     l3492 4520                     l3468 4D62  
                   l2764 429A                     l2756 424A                     l2748 41F4  
                   l2692 4044                     l2684 401C                     l2668 3FB4  
                   l2676 3FDE                     l2780 4C5E                     l2828 4834  
                   l2916 4CEC                     l2588 3EE6                     l2596 3F0C  
                   l2932 4340                     l2940 43A4                     l2924 42CC  
                   l2908 3616                     l2860 32A0                     l2852 3248  
                   l2844 3198                     l3396 2E8A                     l3388 2D2A  
                   l3556 4AD6                     l3548 4AA6                     l3478 4D4A  
                   l3494 454E                     l2766 42A8                     l2758 4260  
                   l2694 4044                     l2686 4020                     l2678 3FEE  
                   l2918 4CEE                     l2598 3F10                     l2950 444C  
                   l2942 43C0                     l2934 4374                     l2926 42E8  
                   l2870 3334                     l2854 3276                     l2846 31CE  
                   l2838 3178                     l3398 2EE2                     l3558 4AE0  
                   l3496 4560                     l3488 44F4                     l2768 42AE  
                   l2784 4C94                     l2792 46B4                     l2960 44DE  
                   l2952 4454                     l2944 43F4                     l2936 437C  
                   l2928 431C                     l2880 33EE                     l2872 3340  
                   l2856 328A                     l2864 32C0                     l2698 4058  
                   l2786 4CAA                     l2778 4C4E                     l2794 46C4  
                   l2954 4470                     l2946 43FC                     l2938 4398  
                   l2890 34B2                     l2882 340E                     l2874 334E  
                   l2866 3316                     l2858 3298                     l2970 08C0  
                   l2788 4CBA                     l2796 46D2                     l2948 4418  
                   l2956 4478                     l2892 34C8                     l2884 3422  
                   l2876 33B6                     l2868 332A                     l2972 0908  
                   l2964 4B76                     l2798 4718                     l2958 44AA  
                   l2894 34DE                     l2886 3460                     l2878 33C4  
                   l2990 09CC                     l2982 0950                     l2966 4BB4  
                   l2896 34EE                     l2888 34A8                     l2992 09DC  
                   l2984 0972                     l2976 091E                     l2898 3520  
                   l2994 09EA                     l2986 0994                     l2978 093A  
                   l2996 0A06                     l2998 0A1A                     STR_1 087D  
                   u2000 3652                     u2001 364E                     u2010 3664  
                   u2011 3660                     u2100 37BE                     u2020 3674  
                   u2101 37B8                     u2021 3670                     u2110 37C0  
                   u2030 36B6                     u2031 36B2                     u2200 38DA  
                   u2120 37E8                     u2040 36CC                     u3000 3248  
                   u2201 38D6                     u2121 37E4                     u2041 36C8  
                   u3001 3244                     u2210 3920                     u2130 3806  
                   u2050 36DE                     u3010 3276                     u2211 391C  
                   u2131 3802                     u2051 36DA                     u3011 3272  
                   u2300 3A0C                     u2220 3956                     u2140 3826  
                   u2060 36EE                     u3100 3520                     u3020 3298  
                   u2301 3A08                     u2221 3952                     u2141 3822  
                   u2061 36EA                     u3101 351C                     u3021 3294  
                   u2310 3A20                     u2230 3966                     u2150 3834  
                   u2070 372A                     u3110 3564                     u2311 3A1C  
                   u2231 3962                     u2151 3830                     u2071 3726  
                   u3111 3560                     u2320 3A3A                     u2240 3992  
                   u2160 3844                     u2080 3738                     u2400 3B24  
                   u3040 3316                     u3200 4BD4                     u2321 3A36  
                   u2241 398E                     u2161 3840                     u2081 3734  
                   u2401 3B20                     u3041 3312                     u2330 3A74  
                   u2250 39A2                     u2170 3876                     u2090 37A6  
                   u2410 3B34                     u3130 42E8                     u3050 334E  
                   u3210 0908                     u2331 3A70                     u2251 399E  
                   u2171 3872                     u2091 37A2                     u2411 3B30  
                   u3131 42E4                     u3051 334A                     u3035 32D4  
                   u3211 0904                     u2340 3A86                     u2260 39BE  
                   u2180 3884                     u2500 3DE2                     u2420 3B74  
                   u3140 4340                     u3060 33C4                     u3036 32DE  
                   u3300 0AE6                     u3220 093A                     u2341 3A82  
                   u2261 39BA                     u2181 3880                     u2501 3DDE  
                   u2421 3B70                     u3141 433C                     u3125 35E6  
                   u3061 33C0                     u3037 32EE                     u3221 0936  
                   u3205 4BCA                     u2350 3A96                     u2270 39CE  
                   u2190 38A2                     u2510 3E10                     u2430 3B86  
                   u3150 4398                     u3070 3460                     u3310 0B10  
                   u3230 0972                     u2351 3A92                     u2271 39CA  
                   u2191 389E                     u2511 3E0C                     u2431 3B82  
                   u3151 4394                     u3071 345C                     u3311 0B0C  
                   u3231 096E                     u4007 4AB6                     u2360 3AB6  
                   u2280 39E0                     u2520 3E26                     u2440 3B96  
                   u3160 43C0                     u2600 49F8                     u3080 34C8  
                   u3400 0D12                     u3320 0B5C                     u3240 0994  
                   u2361 3AB2                     u2281 39DC                     u2521 3E22  
                   u2441 3B92                     u3161 43BC                     u2601 49F4  
                   u3081 34C4                     u3401 0D0E                     u3321 0B58  
                   u3305 0ADC                     u3241 0990                     u4017 4ACC  
                   u2370 3AC8                     u2290 39F6                     u2530 3E3A  
                   u2450 3BCC                     u3170 4418                     u2610 4A18  
                   u3090 34DE                     u3410 0D20                     u3330 0B78  
                   u3250 09EA                     u4027 4516                     u2371 3AC4  
                   u2291 39F2                     u2531 3E36                     u2451 3BC8  
                   u3171 4414                     u2611 4A14                     u3091 34DA  
                   u3411 0D1C                     u3331 0B74                     u3251 09E6  
                   u2700 3FC4                     u2380 3AE4                     u2540 3E54  
                   u2460 3BDC                     u3180 4470                     u2620 4A68  
                   u3500 0F70                     u3420 0D8A                     u3340 0BB0  
                   u3260 0A06                     u4037 4544                     u2701 3FC0  
                   u2381 3AE0                     u2541 3E50                     u2461 3BD8  
                   u3181 446C                     u2621 4A64                     u3501 0F6C  
                   u3421 0D86                     u3341 0BAC                     u3261 0A02  
                   u2710 4004                     u2550 3E9C                     u2470 3D56  
                   u2390 3B12                     u3510 1010                     u3430 0DA0  
                   u3350 0BBE                     u3270 0A36                     u2630 4C02  
                   u4047 4586                     u2711 4000                     u2551 3E98  
                   u2391 3B0E                     u3511 100C                     u3431 0D9C  
                   u3351 0BBA                     u3271 0A32                     u2631 4BFE  
                   u2800 4190                     u2720 4044                     u2560 3ECA  
                   u2480 3DB0                     u3600 16C2                     u3520 1042  
                   u3440 0DBC                     u3360 0BF6                     u2640 4C3C  
                   u4057 45B4                     u2801 418C                     u2721 4040  
                   u2561 3EC6                     u2481 3DAC                     u3601 16BE  
                   u3521 103E                     u3441 0DB8                     u3361 0BF2  
                   u2641 4C38                     u2810 41BE                     u2730 40BA  
                   u2650 3F3C                     u2570 3F04                     u2490 3DD0  
                   u3530 1066                     u3450 0DDA                     u3370 0C50  
                   u4067 45F6                     u2811 41BA                     u2731 40B6  
                   u2651 3F38                     u2571 3F00                     u2491 3DCC  
                   u2475 3D4C                     u3195 448A                     u3531 1062  
                   u3451 0DD6                     u3371 0C4C                     u2820 41D4  
                   u2740 40DC                     u2660 3F4E                     u2900 46D2  
                   u2580 499C                     u3620 2582                     u3540 1074  
                   u3460 0E1E                     u3380 0C5E                     u4077 4624  
                   u2821 41D0                     u2741 40D8                     u2661 3F4A  
                   u2901 46CE                     u2581 4998                     u3621 257E  
                   u3541 1070                     u3461 0E1A                     u3381 0C5A  
                   u3285 0A4A                     u2830 41E8                     u2750 4106  
                   u2670 3F5E                     u2910 472E                     u2590 49DA  
                   u3630 2606                     u3550 1170                     u3470 0E64  
                   u3390 0CC2                     u3286 0A54                     u4087 4666  
                   u2831 41E4                     u2751 4102                     u2671 3F5A  
                   u2911 472A                     u2591 49D6                     u3631 2602  
                   u3615 18E8                     u3551 116C                     u3471 0E60  
                   u3391 0CBE                     u3295 0A94                     u3287 0A64  
                   u3800 48E0                     u2840 4202                     u2760 412A  
                   u2680 3FA2                     u2920 4784                     u3640 2680  
                   u3560 118E                     u3480 0F04                     u3296 0A9E  
                   u4097 4694                     u3801 48DC                     u2841 41FE  
                   u2761 4126                     u2681 3F9E                     u2921 4780  
                   u3705 291C                     u3641 267C                     u3561 118A  
                   u3481 0F00                     u3297 0AAE                     u3810 48F4  
                   u2850 424A                     u2770 4140                     u2690 3FB4  
                   u2930 47CE                     u3706 2926                     u3650 2726  
                   u3570 1578                     u3490 0F5A                     u3811 48F0  
                   u2851 4246                     u2771 413C                     u2691 3FB0  
                   u2931 47CA                     u3715 2974                     u3707 2936  
                   u3651 2722                     u3571 1574                     u3491 0F56  
                   u3900 45D0                     u3820 491C                     u2860 427A  
                   u2780 415E                     u2940 47EC                     u3740 2A80  
                   u3716 297E                     u3660 27AE                     u3901 45CC  
                   u3821 4918                     u2861 4276                     u2781 415A  
                   u2941 47E8                     u3741 2A7C                     u3725 29BC  
                   u3717 298E                     u3661 27AA                     u3830 493C  
                   u2870 42A8                     u2790 417E                     u2950 47FC  
                   u3726 29C6                     u3670 2804                     u3590 168A  
                   u3831 4938                     u2871 42A4                     u2791 417A  
                   u2951 47F8                     u3735 2A46                     u3727 29D6  
                   u3671 2800                     u3591 1686                     u3840 494C  
                   u2880 4CAA                     u2960 480A                     u3736 2A50  
                   u3841 4948                     u2881 4CA6                     u2961 4806  
                   u3737 2A60                     u3585 15F2                     u3930 4640  
                   u3914 45E6                     u2970 4844                     u2890 46C4  
                   u3770 30F2                     u3690 2904                     u3586 15FC  
                   u3931 463C                     u3915 45E2                     u2971 4840  
                   u2891 46C0                     u3771 30EE                     u3755 3084  
                   u3691 2900                     u3587 160C                     u3924 4612  
                   u3780 487E                     u2980 4852                     u3925 460E  
                   u3781 487A                     u2981 484E                     u3765 30BA  
                   u3685 289E                     u3870 4560                     u3854 4506  
                   u3790 48B2                     u2990 31CE                     u3766 30C4  
                   u3686 28A8                     u3871 455C                     u3855 4502  
                   u2991 31CA                     u3767 30D4                     u3687 28B8  
                   u3960 46B0                     u3944 4656                     u3864 4532  
                   u3961 46AC                     u3945 4652                     u3865 452E  
                   u3954 4682                     u3970 4AA6                     u3955 467E  
                   u3795 48A8                     u3971 4AA2                     u3884 4576  
                   u3980 4AF2                     u3885 4572                     u3981 4AEE  
                   u3894 45A2                     u3895 459E                     u3997 4A82  
                   _cp_h 0879                     _cp_l 0875                     _dp_h 0809  
                   _dp_l 0801                     _main 4A72                     _nanf 4D00  
                   _huge 0861                     _rand 4B76                     _seed 0098  
                   _powf 0880                     _tiny 085D                     prodh 000FF4  
                   prodl 000FF3                     start 0000          ___fldiv@new_exp 0043  
           ___param_bank 000000            ___fltol@sign1 0058          __end_of___fladd 3AF8  
                  ?_main 0001                    ?_nanf 0001          __end_of___fldiv 42BC  
                  ?_rand 000D          __end_of___flneg 4CCC          __end_of___flmul 3F22  
                  ?_powf 0084          __end_of___flsub 4C94          __end_of___fltol 496E  
                  _PORTA 000F80                    _PORTB 000F81                    _TRISA 000F92  
                  _TRISB 000F93      ___lmul@multiplicand 0005                    _lg2_h 0829  
                  _lg2_l 0825                    _fabsf 4CCC                    _errno 0096  
                  _ivln2 0819             ?_knightRider 0001          __end_of_ivln2_h 0875  
        __end_of_ivln2_l 0819                    _two24 0865          __end_of_scalbnf 44F0  
                  _sqrtf 3178                    nanf@s 0001                    nanf@u 0005  
                  tablat 000FF5                    powf@i 012C                    powf@j 01AC  
                  powf@k 01A0                    powf@n 017C                    powf@r 014C  
                  powf@s 015C                    powf@t 01B0                    powf@u 0174  
                  powf@v 0178                    powf@w 0144                    powf@x 0084  
                  powf@y 0088                    powf@z 01B4                    status 000FD8  
        __initialization 4D22             __end_of_cp_h 087D             __end_of_cp_l 0879  
           __end_of_dp_h 0811             __end_of_dp_l 0809             __end_of_main 4AFA  
           __end_of_nanf 4D22             __end_of_huge 0865             __end_of_rand 4BE4  
           __end_of_powf 3178             __end_of_tiny 0861                   ??_main 0090  
                 ??_nanf 0005                   ??_rand 000F                   ??_powf 004B  
          __activetblptr 000001                   ?_fabsf 0001                   _ANSELA 000F5B  
                 _ANSELB 000F5C                   ?_sqrtf 003E            main@buttPress 0091  
       __end_of___xxtofl 4866                   ___flge 496E                   ___lmul 4BE4  
              ??___fladd 0009                ??___fldiv 003A                ??___flneg 0005  
              ??___flmul 0019                ??___flsub 0032                ??___fltol 0054  
                 fabsf@u 0005                   fabsf@x 0001                   clear_0 4D28  
                 isa$std 000001                ??_scalbnf 0030             __mediumconst 0000  
                 powf@s2 018C                   powf@t1 0180                   powf@t2 011C  
                 tblptrh 000FF7                   tblptrl 000FF6                   powf@y1 0128  
                 tblptru 000FF8                   powf@ax 0170                   powf@is 0190  
                 powf@hx 0160                   powf@hy 0184                   powf@ix 01A8  
                 powf@iy 0198                   powf@sn 0188                   sqrtf@i 0064  
                 sqrtf@m 0078                   sqrtf@q 006C                   sqrtf@r 007C  
                 sqrtf@s 0060                   sqrtf@t 0070                   sqrtf@x 003E  
                 sqrtf@z 0074               ___flge@ff1 0032               ___flge@ff2 0036  
           ___xxtofl@arg 000B             ___xxtofl@exp 000A             ___xxtofl@val 0001  
             __accesstop 0060  __end_of__initialization 4D2E               ___flneg@f1 0001  
          ___rparam_used 000001               ___fltol@f1 008C           __pcstackCOMRAM 0001  
          __end_of_lg2_h 082D            __end_of_lg2_l 0829            __end_of_fabsf 4D00  
          __end_of_ivln2 081D            __end_of_two24 0869            __end_of_sqrtf 3638  
             __end_of_L1 085D               __end_of_L2 0859               __end_of_L3 0855  
             __end_of_L4 0851               __end_of_L5 084D               __end_of_L6 0849  
             __end_of_P1 0845               __end_of_P2 0841               __end_of_P3 083D  
             __end_of_P4 0839               __end_of_P5 0835               __end_of_bp 0871  
             __end_of_cp 0821                  ??_fabsf 0005                  ??_sqrtf 0042  
             __pbssBANK0 0092                  ?___flge 0032                  ?___lmul 0001  
         ___lmul@product 0009                ?___xxtofl 0001                  __Hparam 0000  
                __Lparam 0000                  ___fladd 3638                  ___fldiv 3F22  
                ___flneg 4C94                  ___flmul 3AF8                  ___flsub 4C4E  
                ___fltol 4866             __psmallconst 0800                  __pcinit 4D22  
          ??_checkButton 0003                  __ramtop 0800                  __ptext0 4A72  
                __ptext1 4AFA                  __ptext2 4B76                  __ptext3 4BE4  
                __ptext4 0880                  __ptext5 3178                  __ptext6 4D00  
                __ptext7 496E                  __ptext8 42BC                  __ptext9 3AF8  
                _ivln2_h 0871                  _ivln2_l 0815               ??___xxtofl 0005  
                _scalbnf 42BC     end_of_initialization 4D2E        __end_of_rndNumGen 4B76  
                powf@p_h 019C                  powf@p_l 0164                  powf@s_h 016C  
                powf@t_h 0168                  powf@s_l 0130                  powf@t_l 0134  
                powf@z_h 0120                  powf@z_l 0124        __end_of_portsInit 4D6A  
                postinc0 000FEE                  sqrtf@ix 0080              ___fladd@grs 0010  
          ___xxtofl@sign 0009             knightRider@i 0003      __end_of_checkButton 4D54  
            ___fldiv@grs 0045              ___fldiv@rem 003E              ___flmul@grs 001E  
         __end_of___flge 4A72           __end_of___lmul 4C4E            _rndNumGen$842 005A  
    start_initialization 4D22              __end_of_lg2 0831              __end_of_ovt 0825  
               ??___flge 003A                 ??___lmul 0009             checkButton@j 0005  
            _checkButton 4D3C          _tiny@sqrtf$F645 0811                ___fladd@a 0005  
              ___fladd@b 0001                ___fldiv@a 0036                ___fldiv@b 0032  
              ___flmul@a 0015                ___flmul@b 0011                ___flsub@a 002E  
              ___flsub@b 002A            __pcstackBANK0 0060            __pcstackBANK1 0100  
          ??_knightRider 0001                 ?___fladd 0001                 ?___fldiv 0032  
               ?___flneg 0001                 ?___flmul 0011                 ?___flsub 002A  
               ?___fltol 008C               rndNumGen@i 005E                fabsf@F465 0092  
            __smallconst 0800                 ?_scalbnf 002A                _rndNumGen 4AFA  
    __end_of_knightRider 46B2  __end_of_tiny@sqrtf$F645 0815               powf@yisint 0150  
              _portsInit 4D54        ___lmul@multiplier 0001               ?_rndNumGen 0001  
               __Hrparam 0000                 __Lrparam 0000             __Lsmallconst 0800  
             ?_portsInit 0001                 ___xxtofl 46B2                 __ptext10 4CCC  
               __ptext11 46B2                 __ptext12 4C4E                 __ptext13 3638  
               __ptext14 4C94                 __ptext15 3F22                 __ptext16 4866  
               __ptext17 4D54                 __ptext18 44F0                 __ptext19 4D3C  
            _knightRider 44F0                 _powf$850 0158                 _powf$843 01A4  
               _powf$851 013C                 _powf$844 0154                 _powf$852 0140  
               _powf$845 0148                 _powf$853 0108                 _powf$846 0194  
               _powf$854 010C                 _powf$847 0138                 _powf$855 0110  
               _powf$856 0114                 _powf$848 0100                 _powf$857 0118  
               _powf$849 0104     powf@__xc8_float_word 01B8                 isa$xinst 000000  
           ?_checkButton 0001                 scalbnf@n 002E                 scalbnf@u 0034  
               scalbnf@x 002A                 scalbnf@y 0038              ??_rndNumGen 005A  
            ??_portsInit 0001            ___fladd@signs 000D    sqrtf@__xc8_float_word 0068  
           ___fladd@aexp 000E             ___fladd@bexp 000F          knightRider@i_80 0006  
        knightRider@i_78 0004          knightRider@i_79 0005  
